
GLCD.elf:     file format elf32-avr

Sections:
Idx Name          Size      VMA       LMA       File off  Algn
  0 .data         00000110  00800100  00005410  000054a4  2**0
                  CONTENTS, ALLOC, LOAD, DATA
  1 .text         00005410  00000000  00000000  00000094  2**1
                  CONTENTS, ALLOC, LOAD, READONLY, CODE
  2 .bss          00000025  00800210  00800210  000055b4  2**0
                  ALLOC
  3 .debug_aranges 00000020  00000000  00000000  000055b4  2**0
                  CONTENTS, READONLY, DEBUGGING
  4 .debug_pubnames 000001d0  00000000  00000000  000055d4  2**0
                  CONTENTS, READONLY, DEBUGGING
  5 .debug_info   000007ae  00000000  00000000  000057a4  2**0
                  CONTENTS, READONLY, DEBUGGING
  6 .debug_abbrev 0000018e  00000000  00000000  00005f52  2**0
                  CONTENTS, READONLY, DEBUGGING
  7 .debug_line   00000810  00000000  00000000  000060e0  2**0
                  CONTENTS, READONLY, DEBUGGING
  8 .debug_frame  00000110  00000000  00000000  000068f0  2**2
                  CONTENTS, READONLY, DEBUGGING
  9 .debug_str    00000296  00000000  00000000  00006a00  2**0
                  CONTENTS, READONLY, DEBUGGING

Disassembly of section .text:

00000000 <__vectors>:
       0:	0c 94 f4 23 	jmp	0x47e8	; 0x47e8 <__ctors_end>
       4:	0c 94 13 24 	jmp	0x4826	; 0x4826 <__bad_interrupt>
       8:	0c 94 13 24 	jmp	0x4826	; 0x4826 <__bad_interrupt>
       c:	0c 94 13 24 	jmp	0x4826	; 0x4826 <__bad_interrupt>
      10:	0c 94 13 24 	jmp	0x4826	; 0x4826 <__bad_interrupt>
      14:	0c 94 13 24 	jmp	0x4826	; 0x4826 <__bad_interrupt>
      18:	0c 94 13 24 	jmp	0x4826	; 0x4826 <__bad_interrupt>
      1c:	0c 94 13 24 	jmp	0x4826	; 0x4826 <__bad_interrupt>
      20:	0c 94 13 24 	jmp	0x4826	; 0x4826 <__bad_interrupt>
      24:	0c 94 13 24 	jmp	0x4826	; 0x4826 <__bad_interrupt>
      28:	0c 94 13 24 	jmp	0x4826	; 0x4826 <__bad_interrupt>
      2c:	0c 94 13 24 	jmp	0x4826	; 0x4826 <__bad_interrupt>
      30:	0c 94 13 24 	jmp	0x4826	; 0x4826 <__bad_interrupt>
      34:	0c 94 13 24 	jmp	0x4826	; 0x4826 <__bad_interrupt>
      38:	0c 94 13 24 	jmp	0x4826	; 0x4826 <__bad_interrupt>
      3c:	0c 94 13 24 	jmp	0x4826	; 0x4826 <__bad_interrupt>
      40:	0c 94 13 24 	jmp	0x4826	; 0x4826 <__bad_interrupt>
      44:	0c 94 13 24 	jmp	0x4826	; 0x4826 <__bad_interrupt>
      48:	0c 94 13 24 	jmp	0x4826	; 0x4826 <__bad_interrupt>
      4c:	0c 94 13 24 	jmp	0x4826	; 0x4826 <__bad_interrupt>
      50:	0c 94 13 24 	jmp	0x4826	; 0x4826 <__bad_interrupt>
      54:	0c 94 13 24 	jmp	0x4826	; 0x4826 <__bad_interrupt>
      58:	0c 94 13 24 	jmp	0x4826	; 0x4826 <__bad_interrupt>
      5c:	0c 94 13 24 	jmp	0x4826	; 0x4826 <__bad_interrupt>
      60:	0c 94 13 24 	jmp	0x4826	; 0x4826 <__bad_interrupt>
      64:	0c 94 13 24 	jmp	0x4826	; 0x4826 <__bad_interrupt>
      68:	0c 94 13 24 	jmp	0x4826	; 0x4826 <__bad_interrupt>
      6c:	0c 94 13 24 	jmp	0x4826	; 0x4826 <__bad_interrupt>
      70:	0c 94 13 24 	jmp	0x4826	; 0x4826 <__bad_interrupt>
      74:	0c 94 13 24 	jmp	0x4826	; 0x4826 <__bad_interrupt>
      78:	0c 94 13 24 	jmp	0x4826	; 0x4826 <__bad_interrupt>
      7c:	0c 94 13 24 	jmp	0x4826	; 0x4826 <__bad_interrupt>
      80:	0c 94 13 24 	jmp	0x4826	; 0x4826 <__bad_interrupt>
      84:	0c 94 13 24 	jmp	0x4826	; 0x4826 <__bad_interrupt>
      88:	0c 94 13 24 	jmp	0x4826	; 0x4826 <__bad_interrupt>

0000008c <KSTable>:
      8c:	88 61 88 62 88 65 88 68 88 69 88 6a 88 6b 88 71     .a.b.e.h.i.j.k.q
      9c:	88 73 88 74 88 75 88 76 88 77 88 78 88 79 88 7b     .s.t.u.v.w.x.y.{
      ac:	88 7c 88 7d 88 81 88 82 88 85 88 89 88 91 88 93     .|.}............
      bc:	88 95 88 96 88 97 88 a1 88 a2 88 a5 88 a9 88 b5     ................
      cc:	88 b7 88 c1 88 c5 88 c9 88 e1 88 e2 88 e5 88 e8     ................
      dc:	88 e9 88 eb 88 f1 88 f3 88 f5 88 f6 88 f7 88 f8     ................
      ec:	88 fb 88 fc 88 fd 89 41 89 45 89 49 89 51 89 53     .......A.E.I.Q.S
      fc:	89 55 89 56 89 57 89 61 89 62 89 63 89 65 89 68     .U.V.W.a.b.c.e.h
     10c:	89 69 89 71 89 73 89 75 89 76 89 77 89 7b 89 81     .i.q.s.u.v.w.{..
     11c:	89 85 89 89 89 93 89 95 89 a1 89 a2 89 a5 89 a8     ................
     12c:	89 a9 89 ab 89 ad 89 b0 89 b1 89 b3 89 b5 89 b7     ................
     13c:	89 b8 89 c1 89 c2 89 c5 89 c9 89 cb 89 d1 89 d3     ................
     14c:	89 d5 89 d7 89 e1 89 e5 89 e9 89 f3 89 f6 89 f7     ................
     15c:	8a 41 8a 42 8a 45 8a 49 8a 51 8a 53 8a 55 8a 57     .A.B.E.I.Q.S.U.W
     16c:	8a 61 8a 65 8a 69 8a 73 8a 75 8a 81 8a 82 8a 85     .a.e.i.s.u......
     17c:	8a 88 8a 89 8a 8a 8a 8b 8a 90 8a 91 8a 93 8a 95     ................
     18c:	8a 97 8a 98 8a a1 8a a2 8a a5 8a a9 8a b6 8a b7     ................
     19c:	8a c1 8a d5 8a e1 8a e2 8a e5 8a e9 8a f1 8a f3     ................
     1ac:	8a f5 8b 41 8b 45 8b 49 8b 61 8b 62 8b 65 8b 68     ...A.E.I.a.b.e.h
     1bc:	8b 69 8b 6a 8b 71 8b 73 8b 75 8b 77 8b 81 8b a1     .i.j.q.s.u.w....
     1cc:	8b a2 8b a5 8b a8 8b a9 8b ab 8b b1 8b b3 8b b5     ................
     1dc:	8b b7 8b b8 8b bc 8c 61 8c 62 8c 63 8c 65 8c 69     .......a.b.c.e.i
     1ec:	8c 6b 8c 71 8c 73 8c 75 8c 76 8c 77 8c 7b 8c 81     .k.q.s.u.v.w.{..
     1fc:	8c 82 8c 85 8c 89 8c 91 8c 93 8c 95 8c 96 8c 97     ................
     20c:	8c a1 8c a2 8c a9 8c e1 8c e2 8c e3 8c e5 8c e9     ................
     21c:	8c f1 8c f3 8c f5 8c f6 8c f7 8d 41 8d 42 8d 45     ...........A.B.E
     22c:	8d 51 8d 55 8d 57 8d 61 8d 65 8d 69 8d 75 8d 76     .Q.U.W.a.e.i.u.v
     23c:	8d 7b 8d 81 8d a1 8d a2 8d a5 8d a7 8d a9 8d b1     .{..............
     24c:	8d b3 8d b5 8d b7 8d b8 8d b9 8d c1 8d c2 8d c9     ................
     25c:	8d d6 8d d7 8d e1 8d e2 8d f7 8e 41 8e 45 8e 49     ...........A.E.I
     26c:	8e 51 8e 53 8e 57 8e 61 8e 81 8e 82 8e 85 8e 89     .Q.S.W.a........
     27c:	8e 90 8e 91 8e 93 8e 95 8e 97 8e 98 8e a1 8e a9     ................
     28c:	8e b6 8e b7 8e c1 8e c2 8e c5 8e c9 8e d1 8e d3     ................
     29c:	8e d6 8e e1 8e e5 8e e9 8e f1 8e f3 8f 41 8f 61     .............A.a
     2ac:	8f 62 8f 65 8f 67 8f 69 8f 6b 8f 70 8f 71 8f 73     .b.e.g.i.k.p.q.s
     2bc:	8f 75 8f 77 8f 7b 8f a1 8f a2 8f a5 8f a9 8f b1     .u.w.{..........
     2cc:	8f b3 8f b5 8f b7 90 61 90 62 90 63 90 65 90 68     .......a.b.c.e.h
     2dc:	90 69 90 6a 90 6b 90 71 90 73 90 75 90 76 90 77     .i.j.k.q.s.u.v.w
     2ec:	90 78 90 79 90 7b 90 7d 90 81 90 82 90 85 90 89     .x.y.{.}........
     2fc:	90 91 90 93 90 95 90 96 90 97 90 a1 90 a2 90 a5     ................
     30c:	90 a9 90 b1 90 b7 90 e1 90 e2 90 e4 90 e5 90 e9     ................
     31c:	90 eb 90 ec 90 f1 90 f3 90 f5 90 f6 90 f7 90 fd     ................
     32c:	91 41 91 42 91 45 91 49 91 51 91 53 91 55 91 56     .A.B.E.I.Q.S.U.V
     33c:	91 57 91 61 91 62 91 65 91 69 91 71 91 73 91 76     .W.a.b.e.i.q.s.v
     34c:	91 77 91 7a 91 81 91 85 91 a1 91 a2 91 a5 91 a9     .w.z............
     35c:	91 ab 91 b1 91 b3 91 b5 91 b7 91 bc 91 bd 91 c1     ................
     36c:	91 c5 91 c9 91 d6 92 41 92 45 92 49 92 51 92 53     .......A.E.I.Q.S
     37c:	92 55 92 61 92 62 92 65 92 69 92 73 92 75 92 77     .U.a.b.e.i.s.u.w
     38c:	92 81 92 82 92 85 92 88 92 89 92 91 92 93 92 95     ................
     39c:	92 97 92 a1 92 b6 92 c1 92 e1 92 e5 92 e9 92 f1     ................
     3ac:	92 f3 93 41 93 42 93 49 93 51 93 53 93 57 93 61     ...A.B.I.Q.S.W.a
     3bc:	93 62 93 65 93 69 93 6a 93 6b 93 71 93 73 93 75     .b.e.i.j.k.q.s.u
     3cc:	93 77 93 78 93 7c 93 81 93 85 93 89 93 a1 93 a2     .w.x.|..........
     3dc:	93 a5 93 a9 93 ab 93 b1 93 b3 93 b5 93 b7 93 bc     ................
     3ec:	94 61 94 62 94 63 94 65 94 68 94 69 94 6a 94 6b     .a.b.c.e.h.i.j.k
     3fc:	94 6c 94 70 94 71 94 73 94 75 94 76 94 77 94 78     .l.p.q.s.u.v.w.x
     40c:	94 79 94 7d 94 81 94 82 94 85 94 89 94 91 94 93     .y.}............
     41c:	94 95 94 96 94 97 94 a1 94 e1 94 e2 94 e3 94 e5     ................
     42c:	94 e8 94 e9 94 eb 94 ec 94 f1 94 f3 94 f5 94 f7     ................
     43c:	94 f9 94 fc 95 41 95 42 95 45 95 49 95 51 95 53     .....A.B.E.I.Q.S
     44c:	95 55 95 56 95 57 95 61 95 65 95 69 95 76 95 77     .U.V.W.a.e.i.v.w
     45c:	95 81 95 85 95 a1 95 a2 95 a5 95 a8 95 a9 95 ab     ................
     46c:	95 ad 95 b1 95 b3 95 b5 95 b7 95 b9 95 bb 95 c1     ................
     47c:	95 c5 95 c9 95 e1 95 f6 96 41 96 45 96 49 96 51     .........A.E.I.Q
     48c:	96 53 96 55 96 61 96 81 96 82 96 85 96 89 96 91     .S.U.a..........
     49c:	96 93 96 95 96 97 96 a1 96 b6 96 c1 96 d7 96 e1     ................
     4ac:	96 e5 96 e9 96 f3 96 f5 96 f7 97 41 97 45 97 49     ...........A.E.I
     4bc:	97 51 97 57 97 61 97 62 97 65 97 68 97 69 97 6b     .Q.W.a.b.e.h.i.k
     4cc:	97 71 97 73 97 75 97 77 97 81 97 a1 97 a2 97 a5     .q.s.u.w........
     4dc:	97 a8 97 a9 97 b1 97 b3 97 b5 97 b6 97 b7 97 b8     ................
     4ec:	98 61 98 62 98 65 98 69 98 71 98 73 98 75 98 76     .a.b.e.i.q.s.u.v
     4fc:	98 77 98 7d 98 81 98 82 98 85 98 89 98 91 98 93     .w.}............
     50c:	98 95 98 96 98 97 98 e1 98 e2 98 e5 98 e9 98 eb     ................
     51c:	98 ec 98 f1 98 f3 98 f5 98 f6 98 f7 98 fd 99 41     ...............A
     52c:	99 42 99 45 99 49 99 51 99 53 99 55 99 56 99 57     .B.E.I.Q.S.U.V.W
     53c:	99 61 99 76 99 a1 99 a2 99 a5 99 a9 99 b7 99 c1     .a.v............
     54c:	99 c9 99 e1 9a 41 9a 45 9a 81 9a 82 9a 85 9a 89     .....A.E........
     55c:	9a 90 9a 91 9a 97 9a c1 9a e1 9a e5 9a e9 9a f1     ................
     56c:	9a f3 9a f7 9b 61 9b 62 9b 65 9b 68 9b 69 9b 71     .....a.b.e.h.i.q
     57c:	9b 73 9b 75 9b 81 9b 85 9b 89 9b 91 9b 93 9b a1     .s.u............
     58c:	9b a5 9b a9 9b b1 9b b3 9b b5 9b b7 9c 61 9c 62     .............a.b
     59c:	9c 65 9c 69 9c 71 9c 73 9c 75 9c 76 9c 77 9c 78     .e.i.q.s.u.v.w.x
     5ac:	9c 7c 9c 7d 9c 81 9c 82 9c 85 9c 89 9c 91 9c 93     .|.}............
     5bc:	9c 95 9c 96 9c 97 9c a1 9c a2 9c a5 9c b5 9c b7     ................
     5cc:	9c e1 9c e2 9c e5 9c e9 9c f1 9c f3 9c f5 9c f6     ................
     5dc:	9c f7 9c fd 9d 41 9d 42 9d 45 9d 49 9d 51 9d 53     .....A.B.E.I.Q.S
     5ec:	9d 55 9d 57 9d 61 9d 62 9d 65 9d 69 9d 71 9d 73     .U.W.a.b.e.i.q.s
     5fc:	9d 75 9d 76 9d 77 9d 81 9d 85 9d 93 9d 95 9d a1     .u.v.w..........
     60c:	9d a2 9d a5 9d a9 9d b1 9d b3 9d b5 9d b7 9d c1     ................
     61c:	9d c5 9d d7 9d f6 9e 41 9e 45 9e 49 9e 51 9e 53     .......A.E.I.Q.S
     62c:	9e 55 9e 57 9e 61 9e 65 9e 69 9e 73 9e 75 9e 77     .U.W.a.e.i.s.u.w
     63c:	9e 81 9e 82 9e 85 9e 89 9e 91 9e 93 9e 95 9e 97     ................
     64c:	9e a1 9e b6 9e c1 9e e1 9e e2 9e e5 9e e9 9e f1     ................
     65c:	9e f5 9e f7 9f 41 9f 42 9f 45 9f 49 9f 51 9f 53     .....A.B.E.I.Q.S
     66c:	9f 55 9f 57 9f 61 9f 62 9f 65 9f 69 9f 71 9f 73     .U.W.a.b.e.i.q.s
     67c:	9f 75 9f 77 9f 78 9f 7b 9f 7c 9f a1 9f a2 9f a5     .u.w.x.{.|......
     68c:	9f a9 9f b1 9f b3 9f b5 9f b7 a0 61 a0 62 a0 65     ...........a.b.e
     69c:	a0 67 a0 68 a0 69 a0 6a a0 6b a0 71 a0 73 a0 75     .g.h.i.j.k.q.s.u
     6ac:	a0 77 a0 78 a0 7b a0 7d a0 81 a0 82 a0 85 a0 89     .w.x.{.}........
     6bc:	a0 91 a0 93 a0 95 a0 96 a0 97 a0 98 a0 a1 a0 a2     ................
     6cc:	a0 a9 a0 b7 a0 e1 a0 e2 a0 e5 a0 e9 a0 eb a0 f1     ................
     6dc:	a0 f3 a0 f5 a0 f7 a0 f8 a0 fd a1 41 a1 42 a1 45     ...........A.B.E
     6ec:	a1 49 a1 51 a1 53 a1 55 a1 56 a1 57 a1 61 a1 62     .I.Q.S.U.V.W.a.b
     6fc:	a1 65 a1 69 a1 75 a1 76 a1 77 a1 79 a1 81 a1 a1     .e.i.u.v.w.y....
     70c:	a1 a2 a1 a4 a1 a5 a1 a9 a1 ab a1 b1 a1 b3 a1 b5     ................
     71c:	a1 b7 a1 c1 a1 c5 a1 d6 a1 d7 a2 41 a2 45 a2 49     ...........A.E.I
     72c:	a2 53 a2 55 a2 57 a2 61 a2 65 a2 69 a2 73 a2 75     .S.U.W.a.e.i.s.u
     73c:	a2 81 a2 82 a2 83 a2 85 a2 88 a2 89 a2 8a a2 8b     ................
     74c:	a2 91 a2 93 a2 95 a2 97 a2 9b a2 9d a2 a1 a2 a5     ................
     75c:	a2 a9 a2 b3 a2 b5 a2 c1 a2 e1 a2 e5 a2 e9 a3 41     ...............A
     76c:	a3 45 a3 49 a3 51 a3 55 a3 61 a3 65 a3 69 a3 71     .E.I.Q.U.a.e.i.q
     77c:	a3 75 a3 a1 a3 a2 a3 a5 a3 a8 a3 a9 a3 ab a3 b1     .u..............
     78c:	a3 b3 a3 b5 a3 b6 a3 b7 a3 b9 a3 bb a4 61 a4 62     .............a.b
     79c:	a4 63 a4 64 a4 65 a4 68 a4 69 a4 6a a4 6b a4 6c     .c.d.e.h.i.j.k.l
     7ac:	a4 71 a4 73 a4 75 a4 77 a4 7b a4 81 a4 82 a4 85     .q.s.u.w.{......
     7bc:	a4 89 a4 91 a4 93 a4 95 a4 96 a4 97 a4 9b a4 a1     ................
     7cc:	a4 a2 a4 a5 a4 b3 a4 e1 a4 e2 a4 e5 a4 e8 a4 e9     ................
     7dc:	a4 eb a4 f1 a4 f3 a4 f5 a4 f7 a4 f8 a5 41 a5 42     .............A.B
     7ec:	a5 45 a5 48 a5 49 a5 51 a5 53 a5 55 a5 56 a5 57     .E.H.I.Q.S.U.V.W
     7fc:	a5 61 a5 62 a5 65 a5 69 a5 73 a5 75 a5 76 a5 77     .a.b.e.i.s.u.v.w
     80c:	a5 7b a5 81 a5 85 a5 a1 a5 a2 a5 a3 a5 a5 a5 a9     .{..............
     81c:	a5 b1 a5 b3 a5 b5 a5 b7 a5 c1 a5 c5 a5 d6 a5 e1     ................
     82c:	a5 f6 a6 41 a6 42 a6 45 a6 49 a6 51 a6 53 a6 61     ...A.B.E.I.Q.S.a
     83c:	a6 65 a6 81 a6 82 a6 85 a6 88 a6 89 a6 8a a6 8b     .e..............
     84c:	a6 91 a6 93 a6 95 a6 97 a6 9b a6 9c a6 a1 a6 a9     ................
     85c:	a6 b6 a6 c1 a6 e1 a6 e2 a6 e5 a6 e9 a6 f7 a7 41     ...............A
     86c:	a7 45 a7 49 a7 51 a7 55 a7 57 a7 61 a7 62 a7 65     .E.I.Q.U.W.a.b.e
     87c:	a7 69 a7 71 a7 73 a7 75 a7 a1 a7 a2 a7 a5 a7 a9     .i.q.s.u........
     88c:	a7 ab a7 b1 a7 b3 a7 b5 a7 b7 a7 b8 a7 b9 a8 61     ...............a
     89c:	a8 62 a8 65 a8 69 a8 6b a8 71 a8 73 a8 75 a8 76     .b.e.i.k.q.s.u.v
     8ac:	a8 77 a8 7d a8 81 a8 82 a8 85 a8 89 a8 91 a8 93     .w.}............
     8bc:	a8 95 a8 96 a8 97 a8 a1 a8 a2 a8 b1 a8 e1 a8 e2     ................
     8cc:	a8 e5 a8 e8 a8 e9 a8 f1 a8 f5 a8 f6 a8 f7 a9 41     ...............A
     8dc:	a9 57 a9 61 a9 62 a9 71 a9 73 a9 75 a9 76 a9 77     .W.a.b.q.s.u.v.w
     8ec:	a9 a1 a9 a2 a9 a5 a9 a9 a9 b1 a9 b3 a9 b7 aa 41     ...............A
     8fc:	aa 61 aa 77 aa 81 aa 82 aa 85 aa 89 aa 91 aa 95     .a.w............
     90c:	aa 97 ab 41 ab 57 ab 61 ab 65 ab 69 ab 71 ab 73     ...A.W.a.e.i.q.s
     91c:	ab a1 ab a2 ab a5 ab a9 ab b1 ab b3 ab b5 ab b7     ................
     92c:	ac 61 ac 62 ac 64 ac 65 ac 68 ac 69 ac 6a ac 6b     .a.b.d.e.h.i.j.k
     93c:	ac 71 ac 73 ac 75 ac 76 ac 77 ac 7b ac 81 ac 82     .q.s.u.v.w.{....
     94c:	ac 85 ac 89 ac 91 ac 93 ac 95 ac 96 ac 97 ac a1     ................
     95c:	ac a2 ac a5 ac a9 ac b1 ac b3 ac b5 ac b7 ac c1     ................
     96c:	ac c5 ac c9 ac d1 ac d7 ac e1 ac e2 ac e3 ac e4     ................
     97c:	ac e5 ac e8 ac e9 ac eb ac ec ac f1 ac f3 ac f5     ................
     98c:	ac f6 ac f7 ac fc ad 41 ad 42 ad 45 ad 49 ad 51     .......A.B.E.I.Q
     99c:	ad 53 ad 55 ad 56 ad 57 ad 61 ad 62 ad 65 ad 69     .S.U.V.W.a.b.e.i
     9ac:	ad 71 ad 73 ad 75 ad 76 ad 77 ad 81 ad 85 ad 89     .q.s.u.v.w......
     9bc:	ad 97 ad a1 ad a2 ad a3 ad a5 ad a9 ad ab ad b1     ................
     9cc:	ad b3 ad b5 ad b7 ad bb ad c1 ad c2 ad c5 ad c9     ................
     9dc:	ad d7 ad e1 ad e5 ad e9 ad f1 ad f5 ad f6 ae 41     ...............A
     9ec:	ae 45 ae 49 ae 51 ae 53 ae 55 ae 61 ae 62 ae 65     .E.I.Q.S.U.a.b.e
     9fc:	ae 69 ae 71 ae 73 ae 75 ae 77 ae 81 ae 82 ae 85     .i.q.s.u.w......
     a0c:	ae 88 ae 89 ae 91 ae 93 ae 95 ae 97 ae 99 ae 9b     ................
     a1c:	ae 9c ae a1 ae b6 ae c1 ae c2 ae c5 ae c9 ae d1     ................
     a2c:	ae d7 ae e1 ae e2 ae e5 ae e9 ae f1 ae f3 ae f5     ................
     a3c:	ae f7 af 41 af 42 af 49 af 51 af 55 af 57 af 61     ...A.B.I.Q.U.W.a
     a4c:	af 62 af 65 af 69 af 6a af 71 af 73 af 75 af 77     .b.e.i.j.q.s.u.w
     a5c:	af a1 af a2 af a5 af a8 af a9 af b0 af b1 af b3     ................
     a6c:	af b5 af b7 af bc b0 61 b0 62 b0 64 b0 65 b0 69     .......a.b.d.e.i
     a7c:	b0 71 b0 73 b0 76 b0 77 b0 7d b0 81 b0 82 b0 85     .q.s.v.w.}......
     a8c:	b0 89 b0 91 b0 93 b0 96 b0 97 b0 b7 b0 e1 b0 e2     ................
     a9c:	b0 e5 b0 e9 b0 eb b0 f1 b0 f3 b0 f6 b0 f7 b1 41     ...............A
     aac:	b1 45 b1 49 b1 57 b1 a1 b1 a2 b1 a5 b1 a8 b1 a9     .E.I.W..........
     abc:	b1 ab b1 b1 b1 b3 b1 b7 b1 c1 b1 c2 b1 c5 b1 d6     ................
     acc:	b1 e1 b1 f6 b2 41 b2 45 b2 49 b2 51 b2 53 b2 61     .....A.E.I.Q.S.a
     adc:	b2 81 b2 82 b2 85 b2 89 b2 91 b2 93 b2 97 b2 a1     ................
     aec:	b2 b6 b2 c1 b2 e1 b2 e5 b3 57 b3 61 b3 62 b3 65     .........W.a.b.e
     afc:	b3 69 b3 6b b3 70 b3 71 b3 73 b3 81 b3 85 b3 89     .i.k.p.q.s......
     b0c:	b3 91 b3 a1 b3 a2 b3 a5 b3 a9 b3 b1 b3 b3 b3 b5     ................
     b1c:	b3 b7 b4 61 b4 62 b4 65 b4 66 b4 67 b4 69 b4 6a     ...a.b.e.f.g.i.j
     b2c:	b4 6b b4 70 b4 71 b4 73 b4 75 b4 76 b4 77 b4 7b     .k.p.q.s.u.v.w.{
     b3c:	b4 7c b4 81 b4 82 b4 85 b4 89 b4 91 b4 93 b4 95     .|..............
     b4c:	b4 96 b4 97 b4 a1 b4 a2 b4 a5 b4 a9 b4 ac b4 b1     ................
     b5c:	b4 b3 b4 b5 b4 b7 b4 bb b4 bd b4 c1 b4 c5 b4 c9     ................
     b6c:	b4 d3 b4 e1 b4 e2 b4 e5 b4 e6 b4 e8 b4 e9 b4 ea     ................
     b7c:	b4 eb b4 f1 b4 f3 b4 f4 b4 f5 b4 f6 b4 f7 b4 f8     ................
     b8c:	b4 fa b4 fc b5 41 b5 42 b5 45 b5 49 b5 51 b5 53     .....A.B.E.I.Q.S
     b9c:	b5 55 b5 57 b5 61 b5 62 b5 63 b5 65 b5 69 b5 6b     .U.W.a.b.c.e.i.k
     bac:	b5 6c b5 71 b5 73 b5 74 b5 75 b5 76 b5 77 b5 7b     .l.q.s.t.u.v.w.{
     bbc:	b5 7c b5 7d b5 81 b5 85 b5 89 b5 91 b5 93 b5 95     .|.}............
     bcc:	b5 96 b5 a1 b5 a2 b5 a5 b5 a9 b5 aa b5 ab b5 ad     ................
     bdc:	b5 b0 b5 b1 b5 b3 b5 b5 b5 b7 b5 b9 b5 c1 b5 c2     ................
     bec:	b5 c5 b5 c9 b5 d1 b5 d3 b5 d5 b5 d6 b5 d7 b5 e1     ................
     bfc:	b5 e2 b5 e5 b5 f1 b5 f5 b5 f7 b6 41 b6 42 b6 45     ...........A.B.E
     c0c:	b6 49 b6 51 b6 53 b6 55 b6 57 b6 61 b6 62 b6 65     .I.Q.S.U.W.a.b.e
     c1c:	b6 69 b6 71 b6 73 b6 75 b6 77 b6 81 b6 82 b6 85     .i.q.s.u.w......
     c2c:	b6 89 b6 8a b6 8b b6 91 b6 93 b6 95 b6 97 b6 a1     ................
     c3c:	b6 a2 b6 a5 b6 a9 b6 b1 b6 b3 b6 b6 b6 b7 b6 c1     ................
     c4c:	b6 c2 b6 c5 b6 c9 b6 d1 b6 d3 b6 d7 b6 e1 b6 e2     ................
     c5c:	b6 e5 b6 e9 b6 f1 b6 f3 b6 f5 b6 f7 b7 41 b7 42     .............A.B
     c6c:	b7 45 b7 49 b7 51 b7 53 b7 55 b7 57 b7 59 b7 61     .E.I.Q.S.U.W.Y.a
     c7c:	b7 62 b7 65 b7 69 b7 6f b7 71 b7 73 b7 75 b7 77     .b.e.i.o.q.s.u.w
     c8c:	b7 78 b7 79 b7 7a b7 7b b7 7c b7 7d b7 81 b7 85     .x.y.z.{.|.}....
     c9c:	b7 89 b7 91 b7 95 b7 a1 b7 a2 b7 a5 b7 a9 b7 aa     ................
     cac:	b7 ab b7 b0 b7 b1 b7 b3 b7 b5 b7 b6 b7 b7 b7 b8     ................
     cbc:	b7 bc b8 61 b8 62 b8 65 b8 67 b8 68 b8 69 b8 6b     ...a.b.e.g.h.i.k
     ccc:	b8 71 b8 73 b8 75 b8 76 b8 77 b8 78 b8 81 b8 82     .q.s.u.v.w.x....
     cdc:	b8 85 b8 89 b8 91 b8 93 b8 95 b8 96 b8 97 b8 a1     ................
     cec:	b8 a2 b8 a5 b8 a7 b8 a9 b8 b1 b8 b7 b8 c1 b8 c5     ................
     cfc:	b8 c9 b8 e1 b8 e2 b8 e5 b8 e9 b8 eb b8 f1 b8 f3     ................
     d0c:	b8 f5 b8 f7 b8 f8 b9 41 b9 42 b9 45 b9 49 b9 51     .......A.B.E.I.Q
     d1c:	b9 53 b9 55 b9 57 b9 61 b9 65 b9 69 b9 71 b9 73     .S.U.W.a.e.i.q.s
     d2c:	b9 76 b9 77 b9 81 b9 a1 b9 a2 b9 a5 b9 a9 b9 ab     .v.w............
     d3c:	b9 b1 b9 b3 b9 b5 b9 b7 b9 b8 b9 b9 b9 bd b9 c1     ................
     d4c:	b9 c2 b9 c9 b9 d3 b9 d5 b9 d7 b9 e1 b9 f6 b9 f7     ................
     d5c:	ba 41 ba 45 ba 49 ba 51 ba 53 ba 55 ba 57 ba 61     .A.E.I.Q.S.U.W.a
     d6c:	ba 62 ba 65 ba 77 ba 81 ba 82 ba 85 ba 89 ba 8a     .b.e.w..........
     d7c:	ba 8b ba 91 ba 93 ba 95 ba 97 ba a1 ba b6 ba c1     ................
     d8c:	ba e1 ba e2 ba e5 ba e9 ba f1 ba f3 ba f5 bb 41     ...............A
     d9c:	bb 45 bb 49 bb 51 bb 61 bb 62 bb 65 bb 69 bb 71     .E.I.Q.a.b.e.i.q
     dac:	bb 73 bb 75 bb 77 bb a1 bb a2 bb a5 bb a8 bb a9     .s.u.w..........
     dbc:	bb ab bb b1 bb b3 bb b5 bb b7 bb b8 bb bb bb bc     ................
     dcc:	bc 61 bc 62 bc 65 bc 67 bc 69 bc 6c bc 71 bc 73     .a.b.e.g.i.l.q.s
     ddc:	bc 75 bc 76 bc 77 bc 81 bc 82 bc 85 bc 89 bc 91     .u.v.w..........
     dec:	bc 93 bc 95 bc 96 bc 97 bc a1 bc a5 bc b7 bc e1     ................
     dfc:	bc e2 bc e5 bc e9 bc f1 bc f3 bc f5 bc f6 bc f7     ................
     e0c:	bd 41 bd 57 bd 61 bd 76 bd a1 bd a2 bd a5 bd a9     .A.W.a.v........
     e1c:	bd b1 bd b3 bd b5 bd b7 bd b9 bd c1 bd c2 bd c9     ................
     e2c:	bd d6 bd e1 bd f6 be 41 be 45 be 49 be 51 be 53     .......A.E.I.Q.S
     e3c:	be 77 be 81 be 82 be 85 be 89 be 91 be 93 be 97     .w..............
     e4c:	be a1 be b6 be b7 be e1 bf 41 bf 61 bf 71 bf 75     .........A.a.q.u
     e5c:	bf 77 bf a1 bf a2 bf a5 bf a9 bf b1 bf b3 bf b7     .w..............
     e6c:	bf b8 bf bd c0 61 c0 62 c0 65 c0 67 c0 69 c0 71     .....a.b.e.g.i.q
     e7c:	c0 73 c0 75 c0 76 c0 77 c0 78 c0 81 c0 82 c0 85     .s.u.v.w.x......
     e8c:	c0 89 c0 91 c0 93 c0 95 c0 96 c0 97 c0 a1 c0 a5     ................
     e9c:	c0 a7 c0 a9 c0 b1 c0 b7 c0 e1 c0 e2 c0 e5 c0 e9     ................
     eac:	c0 f1 c0 f3 c0 f5 c0 f6 c0 f7 c1 41 c1 42 c1 45     ...........A.B.E
     ebc:	c1 49 c1 51 c1 53 c1 55 c1 57 c1 61 c1 65 c1 76     .I.Q.S.U.W.a.e.v
     ecc:	c1 81 c1 85 c1 97 c1 a1 c1 a2 c1 a5 c1 a9 c1 b1     ................
     edc:	c1 b3 c1 b5 c1 b7 c1 c1 c1 c5 c1 c9 c1 d7 c2 41     ...............A
     eec:	c2 45 c2 49 c2 51 c2 53 c2 55 c2 57 c2 61 c2 71     .E.I.Q.S.U.W.a.q
     efc:	c2 81 c2 82 c2 85 c2 89 c2 91 c2 93 c2 95 c2 97     ................
     f0c:	c2 a1 c2 b6 c2 c1 c2 c5 c2 e1 c2 e5 c2 e9 c2 f1     ................
     f1c:	c2 f3 c2 f5 c2 f7 c3 41 c3 45 c3 49 c3 51 c3 57     .......A.E.I.Q.W
     f2c:	c3 61 c3 62 c3 65 c3 69 c3 71 c3 73 c3 75 c3 77     .a.b.e.i.q.s.u.w
     f3c:	c3 a1 c3 a2 c3 a5 c3 a8 c3 a9 c3 aa c3 b1 c3 b3     ................
     f4c:	c3 b5 c3 b7 c4 61 c4 62 c4 65 c4 69 c4 71 c4 73     .....a.b.e.i.q.s
     f5c:	c4 75 c4 77 c4 81 c4 82 c4 85 c4 89 c4 91 c4 93     .u.w............
     f6c:	c4 95 c4 96 c4 97 c4 a1 c4 a2 c4 b7 c4 e1 c4 e2     ................
     f7c:	c4 e5 c4 e8 c4 e9 c4 f1 c4 f3 c4 f5 c4 f6 c4 f7     ................
     f8c:	c5 41 c5 42 c5 45 c5 49 c5 51 c5 53 c5 55 c5 57     .A.B.E.I.Q.S.U.W
     f9c:	c5 61 c5 65 c5 69 c5 71 c5 73 c5 75 c5 76 c5 77     .a.e.i.q.s.u.v.w
     fac:	c5 81 c5 a1 c5 a2 c5 a5 c5 a9 c5 b1 c5 b3 c5 b5     ................
     fbc:	c5 b7 c5 c1 c5 c2 c5 c5 c5 c9 c5 d1 c5 d7 c5 e1     ................
     fcc:	c5 f7 c6 41 c6 49 c6 61 c6 81 c6 82 c6 85 c6 89     ...A.I.a........
     fdc:	c6 91 c6 93 c6 95 c6 97 c6 a1 c6 a5 c6 a9 c6 b7     ................
     fec:	c6 c1 c6 d7 c6 e1 c6 e2 c6 e5 c6 e9 c6 f1 c6 f3     ................
     ffc:	c6 f5 c6 f7 c7 41 c7 45 c7 49 c7 51 c7 61 c7 62     .....A.E.I.Q.a.b
    100c:	c7 65 c7 69 c7 71 c7 73 c7 77 c7 a1 c7 a2 c7 a5     .e.i.q.s.w......
    101c:	c7 a9 c7 b1 c7 b3 c7 b5 c7 b7 c8 61 c8 62 c8 65     ...........a.b.e
    102c:	c8 69 c8 6a c8 71 c8 73 c8 75 c8 76 c8 77 c8 81     .i.j.q.s.u.v.w..
    103c:	c8 82 c8 85 c8 89 c8 91 c8 93 c8 95 c8 96 c8 97     ................
    104c:	c8 a1 c8 b7 c8 e1 c8 e2 c8 e5 c8 e9 c8 eb c8 f1     ................
    105c:	c8 f3 c8 f5 c8 f6 c8 f7 c9 41 c9 42 c9 45 c9 49     .........A.B.E.I
    106c:	c9 51 c9 53 c9 55 c9 57 c9 61 c9 65 c9 76 c9 81     .Q.S.U.W.a.e.v..
    107c:	c9 85 c9 a1 c9 a2 c9 a5 c9 a9 c9 b1 c9 b3 c9 b5     ................
    108c:	c9 b7 c9 bc c9 c1 c9 c5 c9 e1 ca 41 ca 45 ca 55     ...........A.E.U
    109c:	ca 57 ca 61 ca 81 ca 82 ca 85 ca 89 ca 91 ca 93     .W.a............
    10ac:	ca 95 ca 97 ca a1 ca b6 ca c1 ca e1 ca e2 ca e5     ................
    10bc:	ca e9 ca f1 ca f3 ca f7 cb 41 cb 45 cb 49 cb 51     .........A.E.I.Q
    10cc:	cb 57 cb 61 cb 62 cb 65 cb 68 cb 69 cb 6b cb 71     .W.a.b.e.h.i.k.q
    10dc:	cb 73 cb 75 cb 81 cb 85 cb 89 cb 91 cb 93 cb a1     .s.u............
    10ec:	cb a2 cb a5 cb a9 cb b1 cb b3 cb b5 cb b7 cc 61     ...............a
    10fc:	cc 62 cc 63 cc 65 cc 69 cc 6b cc 71 cc 73 cc 75     .b.c.e.i.k.q.s.u
    110c:	cc 76 cc 77 cc 7b cc 81 cc 82 cc 85 cc 89 cc 91     .v.w.{..........
    111c:	cc 93 cc 95 cc 96 cc 97 cc a1 cc a2 cc e1 cc e2     ................
    112c:	cc e5 cc e9 cc f1 cc f3 cc f5 cc f6 cc f7 cd 41     ...............A
    113c:	cd 42 cd 45 cd 49 cd 51 cd 53 cd 55 cd 57 cd 61     .B.E.I.Q.S.U.W.a
    114c:	cd 65 cd 69 cd 71 cd 73 cd 76 cd 77 cd 81 cd 89     .e.i.q.s.v.w....
    115c:	cd 93 cd 95 cd a1 cd a2 cd a5 cd a9 cd b1 cd b3     ................
    116c:	cd b5 cd b7 cd c1 cd d7 ce 41 ce 45 ce 61 ce 65     .........A.E.a.e
    117c:	ce 69 ce 73 ce 75 ce 81 ce 82 ce 85 ce 88 ce 89     .i.s.u..........
    118c:	ce 8b ce 91 ce 93 ce 95 ce 97 ce a1 ce b7 ce e1     ................
    119c:	ce e5 ce e9 ce f1 ce f5 cf 41 cf 45 cf 49 cf 51     .........A.E.I.Q
    11ac:	cf 55 cf 57 cf 61 cf 65 cf 69 cf 71 cf 73 cf 75     .U.W.a.e.i.q.s.u
    11bc:	cf a1 cf a2 cf a5 cf a9 cf b1 cf b3 cf b5 cf b7     ................
    11cc:	d0 61 d0 62 d0 65 d0 69 d0 6e d0 71 d0 73 d0 75     .a.b.e.i.n.q.s.u
    11dc:	d0 77 d0 81 d0 82 d0 85 d0 89 d0 91 d0 93 d0 95     .w..............
    11ec:	d0 96 d0 97 d0 a1 d0 b7 d0 e1 d0 e2 d0 e5 d0 e9     ................
    11fc:	d0 eb d0 f1 d0 f3 d0 f5 d0 f7 d1 41 d1 42 d1 45     ...........A.B.E
    120c:	d1 49 d1 51 d1 53 d1 55 d1 57 d1 61 d1 62 d1 65     .I.Q.S.U.W.a.b.e
    121c:	d1 69 d1 71 d1 73 d1 75 d1 76 d1 77 d1 81 d1 85     .i.q.s.u.v.w....
    122c:	d1 89 d1 93 d1 a1 d1 a2 d1 a5 d1 a9 d1 ae d1 b1     ................
    123c:	d1 b3 d1 b5 d1 b7 d1 bb d1 c1 d1 c2 d1 c5 d1 c9     ................
    124c:	d1 d5 d1 d7 d1 e1 d1 e2 d1 e5 d1 f5 d1 f7 d2 41     ...............A
    125c:	d2 42 d2 45 d2 49 d2 53 d2 55 d2 57 d2 61 d2 65     .B.E.I.S.U.W.a.e
    126c:	d2 69 d2 73 d2 75 d2 81 d2 82 d2 85 d2 89 d2 8e     .i.s.u..........
    127c:	d2 91 d2 95 d2 97 d2 a1 d2 a5 d2 a9 d2 b1 d2 b7     ................
    128c:	d2 c1 d2 c2 d2 c5 d2 c9 d2 d7 d2 e1 d2 e2 d2 e5     ................
    129c:	d2 e9 d2 f1 d2 f3 d2 f5 d2 f7 d3 41 d3 42 d3 45     ...........A.B.E
    12ac:	d3 49 d3 51 d3 55 d3 57 d3 61 d3 62 d3 65 d3 67     .I.Q.U.W.a.b.e.g
    12bc:	d3 68 d3 69 d3 6a d3 71 d3 73 d3 75 d3 77 d3 7b     .h.i.j.q.s.u.w.{
    12cc:	d3 81 d3 85 d3 89 d3 91 d3 93 d3 97 d3 a1 d3 a2     ................
    12dc:	d3 a5 d3 a9 d3 b1 d3 b3 d3 b5 d3 b7                 ............

000012e8 <Korean>:
	...
    1308:	00 00 08 08 08 88 c8 78 38 00 00 00 00 00 00 00     .......x8.......
    1318:	00 00 02 02 01 01 00 00 00 00 00 00 00 00 00 00     ................
    1328:	00 08 08 c8 f8 38 c8 f8 38 00 00 00 00 00 00 00     .....8..8.......
    1338:	00 02 01 01 02 01 01 00 00 00 00 00 00 00 00 00     ................
    1348:	00 08 f8 f8 00 00 00 00 00 00 00 00 00 00 00 00     ................
    1358:	00 00 01 03 02 02 02 02 02 02 00 00 00 00 00 00     ................
    1368:	00 08 f8 f8 08 08 08 08 00 00 00 00 00 00 00 00     ................
    1378:	00 00 01 03 02 02 02 02 02 00 00 00 00 00 00 00     ................
    1388:	00 08 f8 f8 08 f8 f8 08 08 00 00 00 00 00 00 00     ................
    1398:	00 00 01 03 02 01 03 02 02 02 00 00 00 00 00 00     ................
    13a8:	00 00 c8 c8 48 48 48 78 78 00 00 00 00 00 00 00     ....HHHxx.......
    13b8:	00 00 01 03 02 02 02 02 02 02 00 00 00 00 00 00     ................
    13c8:	00 08 f8 f8 08 08 08 f8 f8 00 00 00 00 00 00 00     ................
    13d8:	00 00 03 03 02 02 02 03 03 00 00 00 00 00 00 00     ................
    13e8:	00 10 f0 f0 40 40 48 f8 f8 00 00 00 00 00 00 00     ....@@H.........
    13f8:	00 00 03 03 02 02 02 03 03 00 00 00 00 00 00 00     ................
    1408:	10 f0 f0 40 f0 f0 48 f8 f8 00 00 00 00 00 00 00     ...@..H.........
    1418:	00 03 03 02 03 03 02 03 03 00 00 00 00 00 00 00     ................
    1428:	00 00 00 00 c4 7c fc 80 00 00 00 00 00 00 00 00     .....|..........
    1438:	00 02 02 01 01 00 00 01 03 02 00 00 00 00 00 00     ................
    1448:	00 00 f8 78 80 80 78 f8 00 00 00 00 00 00 00 00     ...x..x.........
    1458:	02 03 01 00 03 03 00 01 03 02 00 00 00 00 00 00     ................
    1468:	00 e0 f0 18 08 08 18 f0 e0 00 00 00 00 00 00 00     ................
    1478:	00 00 01 03 02 02 03 01 00 00 00 00 00 00 00 00     ................
    1488:	00 08 08 08 88 c8 78 38 00 00 00 00 00 00 00 00     ......x8........
    1498:	00 02 02 01 01 00 01 03 02 00 00 00 00 00 00 00     ................
    14a8:	00 08 88 c8 f8 b8 c8 f8 38 00 00 00 00 00 00 00     ........8.......
    14b8:	02 03 01 02 03 01 00 01 03 02 00 00 00 00 00 00     ................
    14c8:	00 10 10 14 94 d4 f4 30 00 00 00 00 00 00 00 00     .......0........
    14d8:	00 02 02 01 01 00 01 03 02 00 00 00 00 00 00 00     ................
    14e8:	00 28 28 28 28 a8 e8 78 38 00 00 00 00 00 00 00     .((((..x8.......
    14f8:	00 02 02 02 01 01 00 00 00 00 00 00 00 00 00 00     ................
    1508:	00 08 f8 f8 48 48 48 48 48 00 00 00 00 00 00 00     ....HHHHH.......
    1518:	00 00 01 03 02 02 02 02 02 02 00 00 00 00 00 00     ................
    1528:	08 08 f8 f8 08 08 f8 f8 08 08 00 00 00 00 00 00     ................
    1538:	02 02 03 03 02 02 03 03 02 02 00 00 00 00 00 00     ................
    1548:	00 08 c8 e8 2c 2c 2c e8 c8 08 00 00 00 00 00 00     ....,,,.........
    1558:	00 00 01 03 02 02 02 03 01 00 00 00 00 00 00 00     ................
	...
    1588:	00 00 00 04 04 04 04 04 04 04 fc 7c 00 00 00 00     ...........|....
	...
    15a8:	00 00 00 04 04 04 fc 7c 04 04 04 fc 7c 00 00 00     .......|....|...
	...
    15c8:	00 00 04 3c 7c 40 40 40 40 40 40 40 40 00 00 00     ...<|@@@@@@@@...
	...
    15e8:	00 00 04 3c 7c 44 44 44 44 44 44 44 00 00 00 00     ...<|DDDDDDD....
	...
    1608:	00 00 04 3c 7c 44 44 44 3c 7c 44 44 44 00 00 00     ...<|DDD<|DDD...
	...
    1628:	00 00 00 34 74 54 54 54 54 54 54 5c 5c 00 00 00     ...4tTTTTTT\\...
	...
    1648:	00 00 04 7c 7c 44 44 44 44 44 7c 7c 00 00 00 00     ...||DDDDD||....
	...
    1668:	00 00 04 7c 7c 50 50 50 50 54 7c 7c 00 00 00 00     ...||PPPPT||....
	...
    1688:	00 00 04 7c 7c 50 50 7c 7c 50 50 7c 7c 00 00 00     ...||PP||PP||...
	...
    16a8:	00 00 80 80 40 60 34 1c 1c 10 20 60 c0 80 00 00     ....@`4... `....
	...
    16c8:	00 80 c0 60 3c 1c b0 c0 60 3c 3c 60 c0 80 00 00     ...`<...`<<`....
	...
    16e8:	00 00 00 38 7c 44 44 44 44 44 7c 38 00 00 00 00     ...8|DDDDD|8....
	...
    1708:	00 00 80 84 44 44 24 24 14 3c 2c 44 c0 80 00 00     ....DD$$.<,D....
	...
    1728:	00 00 44 64 34 1c 1c 64 64 1c 1c 34 64 40 00 00     ..Dd4..dd..4d@..
	...
    1748:	00 00 80 88 48 48 6a 3a 1a 3a 28 48 c8 80 00 00     ....HHj:.:(H....
	...
    1768:	00 00 00 24 24 24 24 24 24 24 24 fc fc 00 00 00     ...$$$$$$$$.....
	...
    1780:	00 00 00 01 00 00 00 00 00 00 04 3c 7c 54 54 54     ...........<|TTT
    1790:	54 54 54 54 54 00 00 00 00 00 00 00 00 00 00 00     TTTTT...........
	...
    17a8:	00 00 00 44 44 7c 7c 44 44 7c 7c 44 44 00 00 00     ...DD||DD||DD...
	...
    17c8:	00 00 00 04 34 7c 4e 4e 4e 4e 7c 34 04 00 00 00     ....4|NNNN|4....
	...
    1808:	00 00 00 04 04 04 04 04 04 04 fc 7c 00 00 00 00     ...........|....
	...
    1828:	00 00 00 04 04 04 7c 3c 04 04 04 7c 3c 00 00 00     ......|<...|<...
	...
    1848:	00 00 04 3c 7c 40 40 40 40 40 40 40 40 00 00 00     ...<|@@@@@@@@...
	...
    1868:	00 00 04 3c 7c 44 44 44 44 44 44 44 00 00 00 00     ...<|DDDDDDD....
	...
    1888:	00 00 04 3c 7c 44 44 44 3c 7c 44 44 44 00 00 00     ...<|DDD<|DDD...
	...
    18a8:	00 00 00 34 74 54 54 54 54 54 54 5c 5c 00 00 00     ...4tTTTTTT\\...
	...
    18c8:	00 00 04 7c 7c 44 44 44 44 44 7c 7c 00 00 00 00     ...||DDDDD||....
	...
    18e8:	00 00 04 7c 7c 50 50 50 50 54 7c 7c 00 00 00 00     ...||PPPPT||....
	...
    1908:	00 00 04 7c 7c 50 50 7c 7c 50 50 7c 7c 00 00 00     ...||PP||PP||...
	...
    1928:	00 00 40 40 20 30 1a 0e 0e 08 10 30 60 40 00 00     ..@@ 0.....0`@..
	...
    1948:	00 40 60 30 1e 0e 18 60 18 0e 1e 30 60 40 00 00     .@`0...`...0`@..
	...
    196c:	1c 3e 22 22 22 22 3e 1c 00 00 00 00 00 00 00 00     .>"""">.........
	...
    1988:	00 00 40 42 22 22 12 12 0a 1e 16 22 60 40 00 00     ..@B""....."`@..
	...
    19a8:	00 00 44 64 34 1c 1c 64 64 1c 1c 34 64 40 00 00     ..Dd4..dd..4d@..
	...
    19c8:	00 00 40 44 24 24 36 1e 0e 1e 14 24 64 40 00 00     ..@D$$6....$d@..
	...
    19e8:	00 00 00 24 24 24 24 24 24 24 24 fc 7c 00 00 00     ...$$$$$$$$.|...
	...
    1a08:	00 00 04 3c 7c 54 54 54 54 54 54 54 54 00 00 00     ...<|TTTTTTTT...
	...
    1a28:	00 00 00 44 44 7c 7c 44 44 7c 7c 44 44 00 00 00     ...DD||DD||DD...
	...
    1a48:	00 00 00 04 34 7c 4e 4e 4e 4e 7c 34 04 00 00 00     ....4|NNNN|4....
	...
    1a88:	00 00 04 04 04 04 04 fc 7c 00 00 00 00 00 00 00     ........|.......
	...
    1aa8:	00 00 04 04 fc 7c 04 04 fc 7c 00 00 00 00 00 00     .....|...|......
	...
    1ac8:	00 04 3c 7c 40 40 40 40 40 40 00 00 00 00 00 00     ..<|@@@@@@......
	...
    1ae8:	00 04 3c 7c 44 44 44 44 44 00 00 00 00 00 00 00     ..<|DDDDD.......
	...
    1b08:	00 04 3c 7c 44 44 3c 7c 44 44 00 00 00 00 00 00     ..<|DD<|DD......
	...
    1b28:	00 00 34 74 54 54 54 5c 5c 00 00 00 00 00 00 00     ..4tTTT\\.......
	...
    1b48:	00 04 7c 7c 44 44 44 7c 7c 00 00 00 00 00 00 00     ..||DDD||.......
	...
    1b68:	00 04 7c 7c 50 50 54 7c 7c 00 00 00 00 00 00 00     ..||PPT||.......
	...
    1b88:	00 04 7c 7c 50 7c 7c 50 7c 7c 00 00 00 00 00 00     ..||P||P||......
	...
    1ba8:	00 80 40 60 34 1c 1c 20 60 c0 80 00 00 00 00 00     ..@`4.. `.......
	...
    1bc8:	00 80 c0 7c 3c e0 e0 3c 7c c0 80 00 00 00 00 00     ...|<..<|.......
	...
    1be8:	00 00 38 7c 44 44 44 7c 38 00 00 00 00 00 00 00     ..8|DDD|8.......
	...
    1c08:	00 00 44 44 24 34 1c 2c 64 40 00 00 00 00 00 00     ..DD$4.,d@......
	...
    1c28:	00 40 64 34 3c 6c 34 3c 6c 44 00 00 00 00 00 00     .@d4<l4<lD......
	...
    1c48:	00 00 88 88 4c 6c 3c 58 c8 80 00 00 00 00 00 00     ....Ll<X........
	...
    1c68:	00 00 14 14 14 14 14 14 fc 7c 00 00 00 00 00 00     .........|......
	...
    1c88:	00 04 3c 7c 54 54 54 54 54 00 00 00 00 00 00 00     ..<|TTTTT.......
	...
    1ca8:	00 00 44 7c 7c 44 44 7c 7c 44 00 00 00 00 00 00     ..D||DD||D......
	...
    1cc8:	00 04 34 7c 4e 4e 4e 7c 34 04 00 00 00 00 00 00     ..4|NNN|4.......
	...
    1d08:	00 00 04 04 04 04 04 fc 7c 00 00 00 00 00 00 00     ........|.......
	...
    1d28:	00 04 04 7c 3c 04 04 7c 3c 00 00 00 00 00 00 00     ...|<..|<.......
	...
    1d48:	00 04 3c 7c 40 40 40 40 40 00 00 00 00 00 00 00     ..<|@@@@@.......
	...
    1d68:	00 04 3c 7c 44 44 44 44 44 00 00 00 00 00 00 00     ..<|DDDDD.......
	...
    1d88:	00 04 3c 7c 44 44 3c 7c 44 44 00 00 00 00 00 00     ..<|DD<|DD......
	...
    1da8:	00 00 34 74 54 54 54 5c 5c 00 00 00 00 00 00 00     ..4tTTT\\.......
	...
    1dc8:	00 04 7c 7c 44 44 44 7c 7c 00 00 00 00 00 00 00     ..||DDD||.......
	...
    1de8:	00 04 7c 7c 50 50 54 7c 7c 00 00 00 00 00 00 00     ..||PPT||.......
	...
    1e08:	00 04 7c 7c 50 7c 7c 50 7c 7c 00 00 00 00 00 00     ..||P||P||......
	...
    1e28:	00 40 20 30 1a 0e 0e 10 30 60 00 00 00 00 00 00     .@ 0....0`......
	...
    1e48:	00 40 60 3c 1c 70 70 1c 3c 60 40 00 00 00 00 00     .@`<.pp.<`@.....
	...
    1e68:	00 00 38 7c 44 44 44 7c 38 00 00 00 00 00 00 00     ..8|DDD|8.......
	...
    1e88:	00 40 44 24 24 14 1c 2c 64 40 00 00 00 00 00 00     .@D$$..,d@......
	...
    1ea8:	00 44 64 34 3c 6c 74 3c 6c 44 00 00 00 00 00 00     .Dd4<lt<lD......
	...
    1ec8:	00 44 44 24 26 16 1e 2c 64 40 00 00 00 00 00 00     .DD$&..,d@......
	...
    1ee8:	00 00 14 14 14 14 14 fc 7c 00 00 00 00 00 00 00     ........|.......
	...
    1f08:	00 04 3c 7c 54 54 54 54 54 00 00 00 00 00 00 00     ..<|TTTTT.......
	...
    1f28:	00 44 7c 7c 44 44 7c 7c 44 00 00 00 00 00 00 00     .D||DD||D.......
	...
    1f48:	00 04 34 7c 4e 4e 4e 7c 34 04 00 00 00 00 00 00     ..4|NNN|4.......
	...
    1f88:	00 00 04 04 84 c4 64 3c 1c 00 00 00 00 00 00 00     ......d<........
    1f98:	00 00 01 01 00 00 00 00 00 00 00 00 00 00 00 00     ................
    1fa8:	00 04 84 e4 7c 9c e4 7c 1c 00 00 00 00 00 00 00     ....|..|........
    1fb8:	00 01 00 00 01 00 00 00 00 00 00 00 00 00 00 00     ................
    1fc8:	00 04 7c fc 80 80 80 80 80 00 00 00 00 00 00 00     ..|.............
	...
    1fe8:	00 04 7c fc 84 84 84 84 80 00 00 00 00 00 00 00     ..|.............
	...
    2008:	00 04 7c fc 84 7c fc 84 84 80 00 00 00 00 00 00     ..|..|..........
	...
    2028:	00 00 e4 e4 24 24 24 3c 3c 00 00 00 00 00 00 00     ....$$$<<.......
    2038:	00 00 00 01 01 01 01 01 01 01 00 00 00 00 00 00     ................
    2048:	00 04 fc fc 84 84 84 fc fc 00 00 00 00 00 00 00     ................
	...
    2068:	00 04 fc fc 90 90 94 fc fc 00 00 00 00 00 00 00     ................
	...
    2088:	04 fc fc 90 fc fc 90 fc fc 00 00 00 00 00 00 00     ................
	...
    20a8:	00 00 00 80 e4 3c 7c c0 80 00 00 00 00 00 00 00     .....<|.........
    20b8:	00 01 01 00 00 00 00 00 01 01 00 00 00 00 00 00     ................
    20c8:	00 80 c0 7c 1c e0 1c 7c c0 80 00 00 00 00 00 00     ...|...|........
	...
    20e8:	00 00 78 fc 84 84 84 fc 78 00 00 00 00 00 00 00     ..x.....x.......
	...
    2108:	00 00 84 84 44 64 34 5c cc 80 00 00 00 00 00 00     ....Dd4\........
	...
    2128:	00 84 c4 64 fc dc 64 fc 9c 00 00 00 00 00 00 00     ...d..d.........
    2138:	00 00 00 01 01 00 00 00 01 01 00 00 00 00 00 00     ................
    2148:	00 08 08 8c cc 6c f8 98 00 00 00 00 00 00 00 00     .....l..........
    2158:	00 01 01 00 00 00 00 01 01 00 00 00 00 00 00 00     ................
    2168:	00 00 14 14 94 d4 74 3c 1c 00 00 00 00 00 00 00     ......t<........
    2178:	00 00 01 01 00 00 00 00 00 00 00 00 00 00 00 00     ................
    2188:	00 04 fc fc 24 24 24 24 00 00 00 00 00 00 00 00     ....$$$$........
    2198:	00 00 00 01 01 01 01 01 01 00 00 00 00 00 00 00     ................
    21a8:	00 84 fc fc 84 84 fc fc 84 84 00 00 00 00 00 00     ................
	...
    21c8:	00 04 74 fc 8e 8e fc 74 04 00 00 00 00 00 00 00     ..t....t........
	...
    2208:	00 00 00 04 04 04 04 04 04 04 04 7c 3c 00 00 00     ...........|<...
	...
    2228:	00 00 04 04 04 7c 3c 04 04 04 04 7c 3c 00 00 00     .....|<....|<...
	...
    2248:	00 00 04 1c 3c 20 20 20 20 20 20 20 20 00 00 00     ....<        ...
	...
    2268:	00 00 04 1c 3c 24 24 24 24 24 24 24 24 00 00 00     ....<$$$$$$$$...
	...
    2288:	00 00 04 1c 3c 24 24 24 1c 3c 24 24 24 00 00 00     ....<$$$.<$$$...
	...
    22a8:	00 00 00 34 74 54 54 54 54 54 54 5c 5c 00 00 00     ...4tTTTTTT\\...
	...
    22c8:	00 00 00 04 3c 3c 24 24 24 24 24 3c 3c 00 00 00     ....<<$$$$$<<...
	...
    22e8:	00 00 04 7c 7c 50 50 50 50 50 54 7c 7c 00 00 00     ...||PPPPPT||...
	...
    2308:	00 00 04 7c 7c 50 50 7c 7c 50 50 7c 7c 00 00 00     ...||PP||PP||...
	...
    2328:	00 00 40 40 20 30 1a 0e 0e 08 10 30 60 40 00 00     ..@@ 0.....0`@..
	...
    2348:	00 40 60 30 1e 0e 58 70 30 1e 1e 30 60 40 00 00     .@`0..Xp0..0`@..
	...
    236c:	38 7c 44 44 44 44 7c 38 00 00 00 00 00 00 00 00     8|DDDD|8........
	...
    2388:	00 00 00 44 44 44 24 24 14 3c 2c 44 40 00 00 00     ...DDD$$.<,D@...
	...
    23a8:	00 00 44 64 34 1c 1c 64 64 1c 1c 34 64 40 00 00     ..Dd4..dd..4d@..
	...
    23c8:	00 00 00 44 44 24 34 1e 0e 1e 34 24 44 40 00 00     ...DD$4...4$D@..
	...
    23e8:	00 00 00 14 14 14 14 14 14 14 14 7c 3c 00 00 00     ...........|<...
	...
    2408:	00 00 04 3c 7c 54 54 54 54 54 54 54 54 00 00 00     ...<|TTTTTTTT...
	...
    2428:	00 00 00 44 44 7c 7c 44 44 7c 7c 44 44 00 00 00     ...DD||DD||DD...
	...
    2448:	00 00 00 04 34 7c 4e 4e 4e 4e 7c 34 04 00 00 00     ....4|NNNN|4....
	...
    2488:	00 00 04 04 04 04 04 7c 3c 00 00 00 00 00 00 00     .......|<.......
	...
    24a8:	00 04 04 7c 3c 04 04 7c 3c 00 00 00 00 00 00 00     ...|<..|<.......
	...
    24c8:	00 04 3c 7c 40 40 40 40 40 00 00 00 00 00 00 00     ..<|@@@@@.......
	...
    24e8:	00 04 3c 7c 44 44 44 44 44 00 00 00 00 00 00 00     ..<|DDDDD.......
	...
    2508:	00 04 3c 7c 44 44 3c 7c 44 44 00 00 00 00 00 00     ..<|DD<|DD......
	...
    2528:	00 00 34 74 54 54 54 5c 5c 00 00 00 00 00 00 00     ..4tTTT\\.......
	...
    2548:	00 04 7c 7c 44 44 44 7c 7c 00 00 00 00 00 00 00     ..||DDD||.......
	...
    2568:	00 04 7c 7c 50 50 54 7c 7c 00 00 00 00 00 00 00     ..||PPT||.......
	...
    2588:	00 04 7c 7c 50 7c 7c 50 7c 7c 00 00 00 00 00 00     ..||P||P||......
	...
    25a8:	00 40 20 30 1a 0e 0e 10 30 60 00 00 00 00 00 00     .@ 0....0`......
	...
    25c8:	00 40 60 3c 1c 70 70 1c 3c 60 40 00 00 00 00 00     .@`<.pp.<`@.....
	...
    25e8:	00 00 38 7c 44 44 44 7c 38 00 00 00 00 00 00 00     ..8|DDD|8.......
	...
    2608:	00 40 44 24 24 14 1c 2c 64 40 00 00 00 00 00 00     .@D$$..,d@......
	...
    2628:	00 44 64 34 3c 6c 34 3c 6c 44 00 00 00 00 00 00     .Dd4<l4<lD......
	...
    2648:	00 44 44 24 26 16 1e 2c 64 40 00 00 00 00 00 00     .DD$&..,d@......
	...
    2668:	00 00 14 14 14 14 14 fc 7c 00 00 00 00 00 00 00     ........|.......
	...
    2688:	00 04 3c 7c 54 54 54 54 54 00 00 00 00 00 00 00     ..<|TTTTT.......
	...
    26a8:	00 44 7c 7c 44 44 7c 7c 44 00 00 00 00 00 00 00     .D||DD||D.......
	...
    26c8:	00 04 34 7c 4e 4e 4e 7c 34 04 00 00 00 00 00 00     ..4|NNN|4.......
	...
    2710:	00 00 02 fe fe 40 40 40 00 00 00 00 00 00 00 00     .....@@@........
    2720:	00 00 00 7f 3f 00 00 00 00 00 00 00 00 00 00 00     ....?...........
    2730:	00 04 fc fc 42 fe fe 00 00 00 00 00 00 00 00 00     ....B...........
    2740:	00 00 3f 1f 00 7f 3f 00 00 00 00 00 00 00 00 00     ..?...?.........
    2750:	00 00 02 fe fe 20 20 20 00 00 00 00 00 00 00 00     .....   ........
    2760:	00 00 00 7f 3f 01 01 01 00 00 00 00 00 00 00 00     ....?...........
    2770:	00 04 fc fc 22 fe fe 00 00 00 00 00 00 00 00 00     ...."...........
    2780:	00 00 3f 1f 01 7f 3f 00 00 00 00 00 00 00 00 00     ..?...?.........
    2790:	00 40 40 42 fe fe 00 00 00 00 00 00 00 00 00 00     .@@B............
    27a0:	00 00 00 00 7f 3f 00 00 00 00 00 00 00 00 00 00     .....?..........
    27b0:	40 44 fc fc 02 fe fe 00 00 00 00 00 00 00 00 00     @D..............
    27c0:	00 00 3f 1f 00 7f 3f 00 00 00 00 00 00 00 00 00     ..?...?.........
    27d0:	00 a0 a0 a2 fe fe 00 00 00 00 00 00 00 00 00 00     ................
    27e0:	00 00 00 00 7f 3f 00 00 00 00 00 00 00 00 00 a0     .....?..........
    27f0:	a0 a4 fc fc 02 fe fe 00 00 00 00 00 00 00 00 00     ................
    2800:	00 00 3f 1f 00 7f 3f 00 00 00 00 00 00 00 00 00     ..?...?.........
	...
    2818:	00 08 08 08 08 08 08 0f 0f 08 08 08 08 08 08 00     ................
	...
    2830:	00 00 02 fe fe 80 80 80 00 04 04 04 07 07 04 04     ................
    2840:	04 04 00 7f 3f 00 00 00 00 00 00 00 00 00 00 00     ....?...........
    2850:	00 04 fc fc 42 fe fe 00 00 04 04 07 07 04 04 04     ....B...........
    2860:	04 00 3f 1f 00 7f 3f 00 00 00 00 00 00 00 00 00     ..?...?.........
    2870:	00 00 00 02 fe fe 00 00 00 04 04 04 07 07 04 04     ................
    2880:	04 04 04 00 7f 3f 00 00 00 00 00 00 00 00 00 00     .....?..........
	...
    2898:	00 08 08 08 0f 0f 08 08 09 0f 0f 08 08 08 08 00     ................
	...
    28b8:	00 01 01 01 01 01 01 7f 3f 01 01 01 01 01 01 00     ........?.......
	...
    28d0:	00 00 00 02 fe fe 00 00 00 01 01 01 01 3f 1f 01     .............?..
    28e0:	01 05 05 04 7f 3f 00 00 00 00 00 00 00 00 00 00     .....?..........
    28f0:	00 04 fc fc 02 fe fe 00 00 01 01 01 3f 1f 01 05     ............?...
    2900:	05 04 3f 1f 00 7f 3f 00 00 00 00 00 00 00 00 00     ..?...?.........
    2910:	00 00 00 02 fe fe 00 00 00 01 01 01 01 3f 1f 01     .............?..
    2920:	01 01 01 00 7f 3f 00 00 00 00 00 00 00 00 00 00     .....?..........
	...
    2938:	00 01 01 01 01 7f 3f 01 01 7f 3f 01 01 01 01 00     ......?...?.....
	...
    2958:	00 08 08 08 08 08 08 08 08 08 08 08 08 08 08 00     ................
	...
    2970:	00 00 00 02 fe fe 00 00 00 04 04 04 04 04 04 04     ................
    2980:	02 02 02 00 7f 3f 00 00 00 00 00 00 00 00 00 00     .....?..........
    2990:	00 00 00 02 fe fe 00 00 00 00 00 00 00 00 00 00     ................
    29a0:	00 00 00 00 7f 3f 00 00 00 00 00 00 00 00 00 00     .....?..........
	...
    29d0:	00 00 02 fe fe 40 40 40 00 00 00 00 00 00 00 00     .....@@@........
    29e0:	00 00 00 7f 3f 00 00 00 00 00 00 00 00 00 00 00     ....?...........
    29f0:	00 04 fc fc 42 fe fe 00 00 00 00 00 00 00 00 00     ....B...........
    2a00:	00 00 3f 1f 00 7f 3f 00 00 00 00 00 00 00 00 00     ..?...?.........
    2a10:	00 00 02 fe fe 20 20 20 00 00 00 00 00 00 00 00     .....   ........
    2a20:	00 00 00 7f 3f 01 01 01 00 00 00 00 00 00 00 00     ....?...........
    2a30:	00 04 fc fc 22 fe fe 00 00 00 00 00 00 00 00 00     ...."...........
    2a40:	00 00 3f 1f 01 7f 3f 00 00 00 00 00 00 00 00 00     ..?...?.........
    2a50:	00 40 40 42 fe fe 00 00 00 00 00 00 00 00 00 00     .@@B............
    2a60:	00 00 00 00 7f 3f 00 00 00 00 00 00 00 00 00 00     .....?..........
    2a70:	00 44 fc fc 02 fe fe 00 00 00 00 00 00 00 00 00     .D..............
    2a80:	00 00 3f 1f 00 7f 3f 00 00 00 00 00 00 00 00 00     ..?...?.........
    2a90:	00 a0 a0 a2 fe fe 00 00 00 00 00 00 00 00 00 00     ................
    2aa0:	00 00 00 00 7f 3f 00 00 00 00 00 00 00 00 00 00     .....?..........
    2ab0:	00 a4 fc fc 02 fe fe 00 00 00 00 00 00 00 00 00     ................
    2ac0:	00 00 3f 1f 00 7f 3f 00 00 00 00 00 00 00 00 00     ..?...?.........
	...
    2ad8:	00 08 08 08 08 08 08 0f 0f 08 08 08 08 08 08 00     ................
	...
    2af0:	00 00 02 fe fe 80 80 80 00 04 04 04 07 07 04 04     ................
    2b00:	04 04 00 7f 3f 00 00 00 00 00 00 00 00 00 00 00     ....?...........
    2b10:	00 04 fc fc 42 fe fe 00 00 04 04 04 07 07 04 04     ....B...........
    2b20:	04 00 3f 1f 00 7f 3f 00 00 00 00 00 00 00 00 00     ..?...?.........
    2b30:	00 00 00 02 fe fe 00 00 00 04 04 04 07 07 04 04     ................
    2b40:	04 04 04 00 7f 3f 00 00 00 00 00 00 00 00 00 00     .....?..........
	...
    2b58:	00 08 08 08 08 0f 0f 08 08 0f 0f 08 08 08 08 00     ................
	...
    2b78:	00 01 01 01 01 01 01 7f 3f 01 01 01 01 01 01 00     ........?.......
	...
    2b90:	00 00 00 02 fe fe 00 00 00 01 01 01 01 3f 1f 01     .............?..
    2ba0:	01 05 05 04 7f 3f 00 00 00 00 00 00 00 00 00 00     .....?..........
    2bb0:	00 04 fc fc 02 fe fe 00 00 01 01 01 1f 0f 01 05     ................
    2bc0:	05 04 3f 1f 00 7f 3f 00 00 00 00 00 00 00 00 00     ..?...?.........
    2bd0:	00 00 00 02 fe fe 00 00 00 01 01 01 01 3f 1f 01     .............?..
    2be0:	01 01 01 00 7f 3f 00 00 00 00 00 00 00 00 00 00     .....?..........
	...
    2bf8:	00 01 01 01 01 7f 3f 01 01 7f 3f 01 01 01 01 00     ......?...?.....
	...
    2c18:	00 08 08 08 08 08 08 08 08 08 08 08 08 08 08 00     ................
	...
    2c30:	00 00 00 02 fe fe 00 00 00 04 04 04 04 04 04 04     ................
    2c40:	02 02 02 00 7f 3f 00 00 00 00 00 00 00 00 00 00     .....?..........
    2c50:	00 00 00 02 fe fe 00 00 00 00 00 00 00 00 00 00     ................
    2c60:	00 00 00 00 7f 3f 00 00 00 00 00 00 00 00 00 00     .....?..........
	...
    2c90:	00 00 02 fe fe 20 20 20 00 00 00 00 00 00 00 00     .....   ........
    2ca0:	00 00 00 03 01 00 00 00 00 00 00 00 00 00 00 00     ................
    2cb0:	00 04 fc fc 22 fe fe 00 00 00 00 00 00 00 00 00     ...."...........
    2cc0:	00 00 03 01 00 03 01 00 00 00 00 00 00 00 00 00     ................
    2cd0:	00 00 02 fe fe 50 50 50 00 00 00 00 00 00 00 00     .....PPP........
    2ce0:	00 00 00 03 01 00 00 00 00 00 00 00 00 00 00 00     ................
    2cf0:	00 04 fc fc 52 fe fe 00 00 00 00 00 00 00 00 00     ....R...........
    2d00:	00 00 03 01 00 03 01 00 00 00 00 00 00 00 00 00     ................
    2d10:	20 20 20 22 fe fe 00 00 00 00 00 00 00 00 00 00        "............
    2d20:	00 00 00 00 03 01 00 00 00 00 00 00 00 00 00 00     ................
    2d30:	20 24 fc fc 02 fe fe 00 00 00 00 00 00 00 00 00      $..............
    2d40:	00 00 03 01 00 03 01 00 00 00 00 00 00 00 00 00     ................
    2d50:	00 50 50 52 fe fe 00 00 00 00 00 00 00 00 00 00     .PPR............
    2d60:	00 00 00 00 03 01 00 00 00 00 00 00 00 00 00 00     ................
    2d70:	50 54 fc fc 02 fe fe 00 00 00 00 00 00 00 00 00     PT..............
    2d80:	00 00 03 01 00 03 01 00 00 00 00 00 00 00 00 c0     ................
    2d90:	c0 00 00 00 00 00 00 00 00 01 01 01 01 01 01 01     ................
    2da0:	01 01 01 01 01 01 01 00 00 00 00 00 c0 c0 00 00     ................
    2db0:	00 00 02 fe fe 20 20 20 00 01 01 01 01 01 01 01     .....   ........
    2dc0:	01 01 00 03 01 00 00 00 00 00 00 c0 c0 00 00 00     ................
    2dd0:	00 04 fc fc 22 fe fe 00 00 01 01 01 01 01 01 01     ...."...........
    2de0:	01 00 01 00 00 03 01 00 00 00 00 00 c0 c0 00 00     ................
    2df0:	00 00 00 02 fe fe 00 00 00 01 01 01 01 01 01 01     ................
    2e00:	01 01 01 00 03 01 00 00 00 00 00 00 c0 c0 00 00     ................
    2e10:	00 c0 c0 00 00 00 00 00 00 01 01 01 01 01 01 01     ................
    2e20:	01 01 01 01 01 01 01 00 00 80 80 80 80 80 80 80     ................
    2e30:	80 80 80 80 80 80 80 00 00 00 00 00 00 00 00 07     ................
    2e40:	03 00 00 00 00 00 00 00 00 40 40 40 40 c0 c0 40     .........@@@@..@
    2e50:	40 40 40 04 fc fc 00 00 00 00 00 00 00 07 03 00     @@@.............
    2e60:	00 01 01 01 07 03 00 00 00 00 00 00 00 00 00 00     ................
    2e70:	40 44 fc fc 02 fe fe 00 00 01 01 01 07 03 01 01     @D..............
    2e80:	01 00 07 03 00 07 03 00 00 00 80 80 80 80 80 80     ................
    2e90:	80 80 80 00 02 fe fe 00 00 00 00 00 00 03 03 00     ................
    2ea0:	00 00 00 00 00 03 01 00 00 00 00 00 00 00 00 00     ................
	...
    2eb8:	00 01 01 01 01 07 07 01 01 07 07 01 01 01 01 00     ................
	...
    2ed8:	00 01 01 01 01 01 01 01 01 01 01 01 01 01 01 00     ................
	...
    2ef0:	00 00 00 02 fe fe 00 00 00 01 01 01 01 01 01 01     ................
    2f00:	01 01 01 00 03 01 00 00 00 00 00 00 00 00 00 00     ................
    2f10:	00 00 00 02 fe fe 00 00 00 00 00 00 00 00 00 00     ................
    2f20:	00 00 00 00 03 01 00 00 00 00 00 00 00 00 00 00     ................
	...
    2f50:	00 00 02 fe fe 20 20 20 00 00 00 00 00 00 00 00     .....   ........
    2f60:	00 00 00 03 01 00 00 00 00 00 00 00 00 00 00 00     ................
    2f70:	00 04 fc fc 22 fe fe 00 00 00 00 00 00 00 00 00     ...."...........
    2f80:	00 00 03 01 00 03 01 00 00 00 00 00 00 00 00 00     ................
    2f90:	00 00 02 fe fe 50 50 50 00 00 00 00 00 00 00 00     .....PPP........
    2fa0:	00 00 00 03 01 00 00 00 00 00 00 00 00 00 00 00     ................
    2fb0:	00 04 fc fc 52 fe fe 00 00 00 00 00 00 00 00 00     ....R...........
    2fc0:	00 00 03 01 00 03 01 00 00 00 00 00 00 00 00 00     ................
    2fd0:	00 20 20 22 fe fe 00 00 00 00 00 00 00 00 00 00     .  "............
    2fe0:	00 00 00 00 03 01 00 00 00 00 00 00 00 00 00 00     ................
    2ff0:	00 24 fc fc 02 fe fe 00 00 00 00 00 00 00 00 00     .$..............
    3000:	00 00 03 01 00 03 01 00 00 00 00 00 00 00 00 00     ................
    3010:	00 50 50 52 fe fe 00 00 00 00 00 00 00 00 00 00     .PPR............
    3020:	00 00 00 00 03 01 00 00 00 00 00 00 00 00 00 00     ................
    3030:	00 54 fc fc 02 fe fe 00 00 00 00 00 00 00 00 00     .T..............
    3040:	00 00 03 01 00 03 01 00 00 00 00 00 00 00 00 c0     ................
    3050:	c0 00 00 00 00 00 00 00 00 01 01 01 01 01 01 01     ................
    3060:	01 01 01 01 01 01 01 00 00 00 00 00 c0 c0 00 00     ................
    3070:	00 00 02 fe fe 20 20 20 00 01 01 01 01 01 01 01     .....   ........
    3080:	01 01 00 03 01 00 00 00 00 00 00 00 c0 c0 00 00     ................
    3090:	00 04 fc fc 22 fe fe 00 00 01 01 01 01 01 01 01     ...."...........
    30a0:	01 00 01 00 00 03 01 00 00 00 00 00 c0 c0 00 00     ................
    30b0:	00 00 00 02 fe fe 00 00 00 01 01 01 01 01 01 01     ................
    30c0:	01 01 01 00 03 01 00 00 00 00 00 00 00 c0 c0 00     ................
    30d0:	00 c0 c0 00 00 00 00 00 00 01 01 01 01 01 01 01     ................
    30e0:	01 01 01 01 01 01 01 00 00 00 00 00 00 00 00 00     ................
	...
    30f8:	00 01 01 01 01 01 01 07 07 01 01 01 01 01 01 00     ................
    3108:	00 00 80 80 80 80 80 80 80 80 80 00 02 fe fe 00     ................
    3118:	00 00 00 00 00 03 03 00 00 00 00 01 01 03 03 00     ................
    3128:	00 80 80 80 80 80 80 80 a0 24 fc fc 02 fe fe 00     .........$......
    3138:	00 00 00 00 03 01 00 00 00 00 03 01 00 03 01 00     ................
    3148:	00 00 80 80 80 80 80 80 80 80 80 00 02 fe fe 00     ................
    3158:	00 00 00 00 00 03 03 00 00 00 00 00 00 03 01 00     ................
	...
    3178:	00 01 01 01 01 07 07 01 01 07 07 01 01 01 01 00     ................
	...
    3198:	00 01 01 01 01 01 01 01 01 01 01 01 01 01 01 00     ................
	...
    31b0:	00 00 00 02 fe fe 00 00 00 01 01 01 01 01 01 01     ................
    31c0:	01 01 01 00 03 01 00 00 00 00 00 00 00 00 00 00     ................
    31d0:	00 00 00 02 fe fe 00 00 00 00 00 00 00 00 00 00     ................
    31e0:	00 00 00 00 03 01 00 00 00 00 00 00 00 00 00 00     ................
	...
    321c:	04 04 04 04 04 04 04 7c 3c 00 00 00 00 00 00 00     .......|<.......
	...
    3238:	00 00 00 04 04 04 7c 3c 04 04 04 7c 3c 00 00 00     ......|<...|<...
	...
    3258:	00 00 00 04 04 04 7c 3c 40 60 3c 1c 70 60 00 00     ......|<@`<.p`..
	...
    327c:	00 04 3c 7c 40 40 40 40 40 40 00 00 00 00 00 00     ..<|@@@@@@......
	...
    3298:	00 00 00 04 3c 7c 40 40 44 64 3c 3c 64 44 00 00     ....<|@@Dd<<dD..
	...
    32b8:	00 00 00 04 3c 7c 40 40 28 78 5c 5c 78 28 00 00     ....<|@@(x\\x(..
	...
    32dc:	04 3c 7c 44 44 44 44 44 44 00 00 00 00 00 00 00     .<|DDDDDD.......
	...
    32fc:	34 74 54 54 54 54 54 5c 5c 00 00 00 00 00 00 00     4tTTTTT\\.......
	...
    3318:	00 00 00 34 74 54 5c 5c 00 04 04 7c 3c 00 00 00     ...4tT\\...|<...
	...
    3338:	00 00 00 34 74 54 5c 5c 00 7c 7c 44 7c 7c 00 00     ...4tT\\.||D||..
	...
    3358:	00 00 00 34 74 54 5c 5c 00 7c 7c 50 7c 7c 00 00     ...4tT\\.||P||..
	...
    337c:	34 74 54 5c 5c 00 60 3c 3c 60 40 00 00 00 00 00     4tT\\.`<<`@.....
	...
    3398:	00 00 00 34 74 54 5c 5c 00 7c 7c 54 54 54 00 00     ...4tT\\.||TTT..
	...
    33b8:	00 00 00 34 74 54 5c 18 44 7c 7c 44 7c 7c 44 00     ...4tT\.D||D||D.
	...
    33d8:	00 00 00 34 74 54 5c 5c 00 28 78 5c 5c 78 28 00     ...4tT\\.(x\\x(.
	...
    33fc:	04 7c 7c 44 44 44 44 7c 7c 00 00 00 00 00 00 00     .||DDDD||.......
	...
    341c:	04 7c 7c 50 50 50 54 7c 7c 00 00 00 00 00 00 00     .||PPPT||.......
	...
    343c:	7c 7c 50 7c 7c 40 60 3c 3c 60 60 00 00 00 00 00     ||P||@`<<``.....
	...
    345c:	40 40 20 30 1c 0c 10 30 60 40 00 00 00 00 00 00     @@ 0...0`@......
	...
    3478:	00 00 00 40 60 30 1c 5c 70 30 1c 1c 30 60 40 00     ...@`0.\p0..0`@.
	...
    349c:	00 38 7c 44 44 44 44 7c 38 00 00 00 00 00 00 00     .8|DDDD|8.......
	...
    34bc:	44 44 24 34 1c 1c 34 24 44 44 00 00 00 00 00 00     DD$4..4$DD......
	...
    34dc:	48 48 28 38 1c 1c 38 28 48 48 00 00 00 00 00 00     HH(8..8(HH......
	...
    34fc:	00 14 14 14 14 14 14 7c 3c 00 00 00 00 00 00 00     .......|<.......
	...
    351c:	04 3c 7c 54 54 54 54 54 54 00 00 00 00 00 00 00     .<|TTTTTT.......
	...
    353c:	44 44 7c 7c 44 44 7c 7c 44 44 00 00 00 00 00 00     DD||DD||DD......
	...
    355c:	08 28 78 5c 5c 5c 5c 78 28 08 00 00 00 00 00 00     .(x\\\\x(.......
	...
    359c:	00 04 04 04 04 04 04 04 7c 3c 00 00 00 00 00 00     ........|<......
	...
    35bc:	04 04 04 7c 3c 04 04 04 7c 3c 00 00 00 00 00 00     ...|<...|<......
	...
    35dc:	04 04 04 7c 3c 40 60 3c 1c 70 60 00 00 00 00 00     ...|<@`<.p`.....
	...
    35fc:	00 04 3c 7c 40 40 40 40 40 40 00 00 00 00 00 00     ..<|@@@@@@......
	...
    361c:	04 3c 7c 40 40 44 64 3c 3c 64 44 00 00 00 00 00     .<|@@Dd<<dD.....
	...
    363c:	04 3c 7c 40 40 28 78 5c 5c 78 28 00 00 00 00 00     .<|@@(x\\x(.....
	...
    365c:	00 04 3c 7c 44 44 44 44 44 44 00 00 00 00 00 00     ..<|DDDDDD......
	...
    367c:	00 34 74 54 54 54 54 54 5c 5c 00 00 00 00 00 00     .4tTTTTT\\......
	...
    369c:	34 74 54 5c 5c 00 04 04 7c 3c 00 00 00 00 00 00     4tT\\...|<......
	...
    36b8:	00 00 00 34 74 54 5c 5c 00 7c 7c 44 7c 7c 00 00     ...4tT\\.||D||..
	...
    36d8:	00 00 00 34 74 54 5c 5c 00 7c 7c 50 7c 7c 00 00     ...4tT\\.||P||..
	...
    36fc:	34 74 54 5c 5c 00 60 3c 3c 60 40 00 00 00 00 00     4tT\\.`<<`@.....
	...
    3718:	00 00 00 34 74 54 5c 5c 00 7c 7c 54 54 54 00 00     ...4tT\\.||TTT..
	...
    3738:	00 00 00 34 74 54 5c 18 44 7c 7c 44 7c 7c 44 00     ...4tT\.D||D||D.
	...
    3758:	00 00 00 34 74 54 5c 5c 00 28 78 5c 5c 78 28 00     ...4tT\\.(x\\x(.
	...
    377c:	00 04 7c 7c 44 44 44 44 7c 7c 00 00 00 00 00 00     ..||DDDD||......
	...
    379c:	00 04 7c 7c 50 50 50 54 7c 7c 00 00 00 00 00 00     ..||PPPT||......
	...
    37bc:	7c 7c 50 7c 7c 40 60 3c 3c 60 60 00 00 00 00 00     ||P||@`<<``.....
	...
    37dc:	40 40 20 30 1c 0c 10 30 60 40 00 00 00 00 00 00     @@ 0...0`@......
	...
    37fc:	40 60 30 1c 5c 70 30 1c 1c 30 60 40 00 00 00 00     @`0.\p0..0`@....
	...
    381c:	00 00 38 7c 44 44 44 44 7c 38 00 00 00 00 00 00     ..8|DDDD|8......
	...
    383c:	44 44 24 34 1c 1c 34 24 44 44 00 00 00 00 00 00     DD$4..4$DD......
	...
    385c:	48 48 28 38 1c 1c 38 28 48 48 00 00 00 00 00 00     HH(8..8(HH......
	...
    387c:	00 00 14 14 14 14 14 14 7c 3c 00 00 00 00 00 00     ........|<......
	...
    389c:	00 04 3c 7c 54 54 54 54 54 54 00 00 00 00 00 00     ..<|TTTTTT......
	...
    38bc:	44 44 7c 7c 44 44 7c 7c 44 44 00 00 00 00 00 00     DD||DD||DD......
	...
    38dc:	00 08 28 78 5c 5c 5c 5c 78 28 08 00 00 00 00 00     ..(x\\\\x(......
	...
    391c:	00 04 04 04 04 04 04 04 04 7c 3c 00 00 00 00 00     .........|<.....
	...
    393c:	04 04 04 04 7c 3c 04 04 04 7c 3c 00 00 00 00 00     ....|<...|<.....
	...
    395c:	04 04 04 04 7c 3c 40 60 3c 1c 70 60 00 00 00 00     ....|<@`<.p`....
	...
    397c:	00 04 3c 7c 40 40 40 40 40 40 40 00 00 00 00 00     ..<|@@@@@@@.....
	...
    3998:	00 00 00 04 3c 7c 40 40 00 44 64 3c 3c 64 44 00     ....<|@@.Dd<<dD.
	...
    39b8:	00 00 00 04 3c 7c 40 40 40 28 78 5c 5c 78 28 00     ....<|@@@(x\\x(.
	...
    39dc:	00 04 3c 7c 44 44 44 44 44 44 00 00 00 00 00 00     ..<|DDDDDD......
	...
    39fc:	00 00 34 74 54 54 54 54 54 5c 5c 00 00 00 00 00     ..4tTTTTT\\.....
	...
    3a1c:	00 34 74 54 5c 5c 00 04 04 7c 3c 00 00 00 00 00     .4tT\\...|<.....
	...
    3a3c:	34 74 54 5c 5c 00 7c 7c 44 7c 7c 00 00 00 00 00     4tT\\.||D||.....
	...
    3a5c:	34 74 54 5c 5c 00 7c 7c 50 7c 7c 00 00 00 00 00     4tT\\.||P||.....
	...
    3a7c:	00 34 74 54 5c 5c 00 60 3c 3c 60 40 00 00 00 00     .4tT\\.`<<`@....
	...
    3a9c:	34 74 54 5c 5c 00 7c 7c 54 54 54 00 00 00 00 00     4tT\\.||TTT.....
	...
    3ab8:	00 00 00 34 74 54 5c 18 44 7c 7c 44 7c 7c 44 00     ...4tT\.D||D||D.
	...
    3ad8:	00 00 00 34 74 54 5c 5c 00 28 78 5c 5c 78 28 00     ...4tT\\.(x\\x(.
	...
    3afc:	00 04 7c 7c 44 44 44 44 44 7c 7c 00 00 00 00 00     ..||DDDDD||.....
	...
    3b1c:	00 04 7c 7c 50 50 50 50 54 7c 7c 00 00 00 00 00     ..||PPPPT||.....
	...
    3b3c:	7c 7c 50 7c 7c 40 60 3c 3c 60 60 00 00 00 00 00     ||P||@`<<``.....
	...
    3b5c:	00 40 40 20 30 1c 0c 10 30 60 40 00 00 00 00 00     .@@ 0...0`@.....
	...
    3b7c:	40 60 30 1c 5c 70 30 1c 1c 30 60 40 00 00 00 00     @`0.\p0..0`@....
	...
    3b9c:	00 00 00 38 7c 44 44 44 44 7c 38 00 00 00 00 00     ...8|DDDD|8.....
	...
    3bbc:	00 44 44 24 34 1c 1c 34 24 44 44 00 00 00 00 00     .DD$4..4$DD.....
	...
    3bdc:	00 48 48 28 38 1c 1c 38 28 48 48 00 00 00 00 00     .HH(8..8(HH.....
	...
    3bfc:	00 00 14 14 14 14 14 14 14 7c 3c 00 00 00 00 00     .........|<.....
	...
    3c1c:	00 00 04 3c 7c 54 54 54 54 54 54 00 00 00 00 00     ...<|TTTTTT.....
	...
    3c3c:	00 44 44 7c 7c 44 44 7c 7c 44 44 00 00 00 00 00     .DD||DD||DD.....
	...
    3c5c:	00 08 28 78 5c 5c 5c 5c 78 28 08 00 00 00 00 00     ..(x\\\\x(......
	...
    3c98:	00 00 00 04 04 04 04 04 04 04 04 7c 3c 00 00 00     ...........|<...
	...
    3cb8:	00 00 04 04 04 7c 3c 00 04 04 04 7c 3c 00 00 00     .....|<....|<...
	...
    3cd8:	00 00 00 04 04 04 7c 3c 40 60 3c 1c 70 60 00 00     ......|<@`<.p`..
	...
    3cf8:	00 00 04 3c 7c 40 40 40 40 40 40 40 40 00 00 00     ...<|@@@@@@@@...
	...
    3d18:	00 00 04 3c 7c 40 40 00 44 64 3c 3c 64 44 00 00     ...<|@@.Dd<<dD..
	...
    3d38:	00 00 04 3c 7c 40 40 40 28 78 5c 5c 78 28 00 00     ...<|@@@(x\\x(..
	...
    3d58:	00 00 08 38 78 48 48 48 48 48 48 48 48 00 00 00     ...8xHHHHHHHH...
	...
    3d78:	00 00 00 34 74 54 54 54 54 54 54 5c 5c 00 00 00     ...4tTTTTTT\\...
	...
    3d98:	00 00 00 34 74 54 5c 5c 00 04 04 04 7c 3c 00 00     ...4tT\\....|<..
	...
    3db8:	00 00 34 74 54 5c 5c 00 7c 7c 44 44 7c 7c 00 00     ..4tT\\.||DD||..
	...
    3dd8:	00 00 00 34 74 54 5c 5c 00 7c 7c 50 7c 7c 00 00     ...4tT\\.||P||..
	...
    3df8:	00 00 00 34 74 54 5c 5c 00 40 60 3c 3c 60 40 00     ...4tT\\.@`<<`@.
	...
    3e18:	00 00 00 34 74 54 5c 5c 00 7c 7c 54 54 54 00 00     ...4tT\\.||TTT..
	...
    3e38:	00 00 00 34 74 54 5c 18 44 7c 7c 44 7c 7c 44 00     ...4tT\.D||D||D.
	...
    3e58:	00 00 34 74 54 5c 5c 00 28 78 5c 5c 78 28 00 00     ..4tT\\.(x\\x(..
	...
    3e78:	00 00 00 04 7c 7c 44 44 44 44 44 7c 7c 00 00 00     ....||DDDDD||...
	...
    3e98:	00 00 04 7c 7c 50 50 50 50 50 54 7c 7c 00 00 00     ...||PPPPPT||...
	...
    3eb8:	00 00 00 7c 7c 50 7c 7c 40 60 3c 3c 60 60 00 00     ...||P||@`<<``..
	...
    3ed8:	00 00 00 40 40 20 30 1c 0c 10 30 60 40 00 00 00     ...@@ 0...0`@...
	...
    3ef8:	00 40 60 30 1c 1c 30 60 60 30 1c 1c 30 60 40 00     .@`0..0``0..0`@.
	...
    3f1c:	38 7c 44 44 44 44 7c 38 00 00 00 00 00 00 00 00     8|DDDD|8........
	...
    3f38:	00 00 00 44 44 24 34 1c 1c 34 24 44 44 00 00 00     ...DD$4..4$DD...
	...
    3f58:	00 00 00 48 48 28 38 1c 1c 38 28 48 48 00 00 00     ...HH(8..8(HH...
	...
    3f78:	00 00 00 14 14 14 14 14 14 14 14 7c 3c 00 00 00     ...........|<...
	...
    3f98:	00 00 00 04 3c 7c 54 54 54 54 54 54 54 00 00 00     ....<|TTTTTTT...
	...
    3fb8:	00 00 00 44 44 7c 7c 44 44 7c 7c 44 44 00 00 00     ...DD||DD||DD...
	...
    3fd8:	00 00 00 08 28 78 5c 5c 5c 5c 78 28 08 00 00 00     ....(x\\\\x(....

00003fe8 <English>:
	...
    3ff8:	f8 04 14 04 04 14 04 f8 07 08 09 0b 0b 09 08 07     ................
    4008:	f8 fc 6c 7c 7c 6c fc f8 07 0f 0f 0c 0c 0f 0f 07     ..l||l..........
    4018:	00 f0 f8 f8 f0 f8 f8 f0 00 00 01 03 07 03 01 00     ................
    4028:	00 40 e0 f0 f8 f0 e0 40 00 00 00 01 03 01 00 00     .@.....@........
    4038:	e0 e0 f8 1c 1c f8 e0 e0 00 00 04 07 07 04 00 00     ................
    4048:	60 f0 f8 fc fc f8 f0 60 00 00 04 07 07 04 00 00     `......`........
    4058:	00 00 60 f0 f0 60 00 00 00 00 00 00 00 00 00 00     ..`..`..........
    4068:	00 ff 1f 0f 0f 0f 1f ff 00 ff ff fe fe fe ff ff     ................
    4078:	00 00 e0 10 10 10 e0 00 00 00 00 01 01 01 00 00     ................
    4088:	00 ff 1f ef ef ef 1f ff 00 ff ff fe fe fe ff ff     ................
    4098:	00 00 90 48 7c 48 90 00 00 03 04 08 08 08 04 03     ...H|H..........
    40a8:	00 30 48 84 84 84 48 30 00 02 02 02 0f 02 02 02     .0H...H0........
    40b8:	00 00 00 fc 04 08 70 00 00 06 0f 07 00 00 00 00     ......p.........
    40c8:	00 00 00 fc 14 14 14 fc 00 0c 1e 0f 00 06 0f 07     ................
    40d8:	50 50 e0 bc bc e0 50 50 01 01 00 07 07 00 01 01     PP....PP........
    40e8:	00 00 fc f8 f0 e0 40 00 00 00 07 03 01 00 00 00     ......@.........
    40f8:	00 00 40 e0 f0 f8 fc 00 00 00 00 00 01 03 07 00     ..@.............
    4108:	00 10 18 fc fc 18 10 00 00 01 03 07 07 03 01 00     ................
    4118:	00 00 fc fc 00 00 fc fc 00 00 04 04 00 00 04 04     ................
    4128:	38 7c 44 fc fc 04 fc fc 00 00 00 07 07 00 07 07     8|D.............
    4138:	00 c4 ee 3a 12 32 e6 c4 00 08 19 13 12 17 1d 08     ...:.2..........
	...
    4150:	00 0e 0e 0e 0e 0e 0e 00 00 10 18 fc fc 18 10 00     ................
    4160:	08 09 0b 0f 0f 0b 09 08 00 10 18 fc fc 18 10 00     ................
    4170:	00 00 00 07 07 00 00 00 00 00 00 fc fc 00 00 00     ................
    4180:	00 01 03 07 07 03 01 00 00 40 40 40 50 f0 e0 40     .........@@@P..@
    4190:	00 00 00 00 01 01 00 00 00 40 e0 f0 50 40 40 40     .........@..P@@@
    41a0:	00 00 00 01 01 00 00 00 f8 00 00 00 00 00 00 00     ................
    41b0:	03 02 02 02 02 02 02 02 40 e0 50 40 40 50 e0 40     ........@.P@@P.@
    41c0:	00 00 01 00 00 01 00 00 00 00 00 c0 f0 c0 00 00     ................
    41d0:	00 04 07 07 07 07 07 04 00 10 70 f0 f0 f0 70 10     ..........p...p.
    41e0:	00 00 00 01 07 01 00 00 00 00 00 00 00 00 00 00     ................
	...
    41f8:	00 00 38 fc fc 38 00 00 00 00 00 0d 0d 00 00 00     ..8..8..........
    4208:	00 0e 1e 00 00 1e 0e 00 00 00 00 00 00 00 00 00     ................
    4218:	20 f8 f8 20 f8 f8 20 00 02 0f 0f 02 0f 0f 02 00      .. .. .........
    4228:	38 7c 44 47 47 cc 98 00 06 0c 08 38 38 0f 07 00     8|DGG......88...
    4238:	30 30 00 80 c0 60 30 00 0c 06 03 01 00 0c 0c 00     00...`0.........
    4248:	80 d8 7c e4 bc d8 40 00 07 0f 08 08 07 0f 08 00     ..|...@.........
    4258:	00 10 1e 0e 00 00 00 00 00 00 00 00 00 00 00 00     ................
    4268:	00 00 f0 f8 0c 04 00 00 00 00 03 07 0c 08 00 00     ................
    4278:	00 00 04 0c f8 f0 00 00 00 00 08 0c 07 03 00 00     ................
    4288:	80 a0 e0 c0 c0 e0 a0 80 00 02 03 01 01 03 02 00     ................
    4298:	00 80 80 e0 e0 80 80 00 00 00 00 03 03 00 00 00     ................
	...
    42b0:	00 00 10 1e 0e 00 00 00 80 80 80 80 80 80 80 00     ................
	...
    42d0:	00 00 00 0c 0c 00 00 00 00 00 00 80 c0 60 30 00     .............`0.
    42e0:	0c 06 03 01 00 00 00 00 f0 f8 0c c4 0c f8 f0 00     ................
    42f0:	03 07 0c 08 0c 07 03 00 00 10 18 fc fc 00 00 00     ................
    4300:	00 08 08 0f 0f 08 08 00 08 0c 84 c4 64 3c 18 00     ............d<..
    4310:	0e 0f 09 08 08 0c 0c 00 08 0c 44 44 44 fc b8 00     ..........DDD...
    4320:	04 0c 08 08 08 0f 07 00 c0 e0 b0 98 fc fc 80 00     ................
    4330:	00 00 00 08 0f 0f 08 00 7c 7c 44 44 44 c4 84 00     ........||DDD...
    4340:	04 0c 08 08 08 0f 07 00 f0 f8 4c 44 44 c0 80 00     ..........LDD...
    4350:	07 0f 08 08 08 0f 07 00 0c 0c 04 84 c4 7c 3c 00     .............|<.
    4360:	00 00 0f 0f 00 00 00 00 b8 fc 44 44 44 fc b8 00     ..........DDD...
    4370:	07 0f 08 08 08 0f 07 00 38 7c 44 44 44 fc f8 00     ........8|DDD...
    4380:	00 08 08 08 0c 07 03 00 00 00 00 30 30 00 00 00     ...........00...
    4390:	00 00 00 06 06 00 00 00 00 00 00 30 30 00 00 00     ...........00...
    43a0:	00 00 08 0e 06 00 00 00 00 80 c0 60 30 18 08 00     ...........`0...
    43b0:	00 00 01 03 06 0c 08 00 00 20 20 20 20 20 20 00     .........      .
    43c0:	00 01 01 01 01 01 01 00 00 08 18 30 60 c0 80 00     ...........0`...
    43d0:	00 08 0c 06 03 01 00 00 18 1c 04 c4 e4 3c 18 00     .............<..
    43e0:	00 00 00 0d 0d 00 00 00 f0 f8 08 c8 c8 f8 f0 00     ................
    43f0:	07 0f 08 0b 0b 0b 01 00 e0 f0 98 8c 98 f0 e0 00     ................
    4400:	0f 0f 00 00 00 0f 0f 00 04 fc fc 44 44 fc b8 00     ...........DD...
    4410:	08 0f 0f 08 08 0f 07 00 f0 f8 0c 04 04 0c 18 00     ................
    4420:	03 07 0c 08 08 0c 06 00 04 fc fc 04 0c f8 f0 00     ................
    4430:	08 0f 0f 08 0c 07 03 00 04 fc fc 44 e4 0c 1c 00     ...........D....
    4440:	08 0f 0f 08 08 0c 0e 00 04 fc fc 44 e4 0c 1c 00     ...........D....
    4450:	08 0f 0f 08 00 00 00 00 f0 f8 0c 84 84 8c 98 00     ................
    4460:	03 07 0c 08 08 07 0f 00 fc fc 40 40 40 fc fc 00     ..........@@@...
    4470:	0f 0f 00 00 00 0f 0f 00 00 00 04 fc fc 04 00 00     ................
    4480:	00 00 08 0f 0f 08 00 00 00 00 00 04 fc fc 04 00     ................
    4490:	07 0f 08 08 0f 07 00 00 04 fc fc c0 e0 3c 1c 00     .............<..
    44a0:	08 0f 0f 00 01 0f 0e 00 04 fc fc 04 00 00 00 00     ................
    44b0:	08 0f 0f 08 08 0c 0e 00 fc fc 38 70 38 fc fc 00     ..........8p8...
    44c0:	0f 0f 00 00 00 0f 0f 00 fc fc 38 70 e0 fc fc 00     ..........8p....
    44d0:	0f 0f 00 00 00 0f 0f 00 f8 fc 04 04 04 fc f8 00     ................
    44e0:	07 0f 08 08 08 0f 07 00 04 fc fc 44 44 7c 38 00     ...........DD|8.
    44f0:	08 0f 0f 08 00 00 00 00 f8 fc 04 04 04 fc f8 00     ................
    4500:	07 0f 08 0e 3c 3f 27 00 04 fc fc 44 c4 fc 38 00     ....<?'....D..8.
    4510:	08 0f 0f 00 00 0f 0f 00 18 3c 64 44 c4 9c 18 00     .........<dD....
    4520:	06 0e 08 08 08 0f 07 00 00 1c 0c fc fc 0c 1c 00     ................
    4530:	00 00 08 0f 0f 08 00 00 fc fc 00 00 00 fc fc 00     ................
    4540:	07 0f 08 08 08 0f 07 00 fc fc 00 00 00 fc fc 00     ................
    4550:	01 03 06 0c 06 03 01 00 fc fc 00 c0 00 fc fc 00     ................
    4560:	07 0f 0e 03 0e 0f 07 00 0c 3c f0 e0 f0 3c 0c 00     .........<...<..
    4570:	0c 0f 03 01 03 0f 0c 00 00 3c 7c c0 c0 7c 3c 00     .........<|..|<.
    4580:	00 00 08 0f 0f 08 00 00 1c 0c 84 c4 64 3c 1c 00     ............d<..
    4590:	0e 0f 09 08 08 0c 0e 00 00 00 fc fc 04 04 00 00     ................
    45a0:	00 00 0f 0f 08 08 00 00 38 70 e0 c0 80 00 00 00     ........8p......
    45b0:	00 00 00 01 03 07 0e 00 00 00 04 04 fc fc 00 00     ................
    45c0:	00 00 08 08 0f 0f 00 00 08 0c 06 03 06 0c 08 00     ................
	...
    45e0:	20 20 20 20 20 20 20 20 00 00 03 07 04 00 00 00             ........
	...
    45f8:	00 a0 a0 a0 e0 c0 00 00 07 0f 08 08 07 0f 08 00     ................
    4608:	04 fc fc 20 60 c0 80 00 00 0f 0f 08 08 0f 07 00     ... `...........
    4618:	c0 e0 20 20 20 60 40 00 07 0f 08 08 08 0c 04 00     ..   `@.........
    4628:	80 c0 60 24 fc fc 00 00 07 0f 08 08 07 0f 08 00     ..`$............
    4638:	c0 e0 a0 a0 a0 e0 c0 00 07 0f 08 08 08 0c 04 00     ................
    4648:	40 f8 fc 44 0c 18 00 00 08 0f 0f 08 00 00 00 00     @..D............
    4658:	c0 e0 20 20 c0 e0 20 00 27 6f 48 48 7f 3f 00 00     ..  .. .'oHH.?..
    4668:	04 fc fc 40 20 e0 c0 00 08 0f 0f 00 00 0f 0f 00     ...@ ...........
    4678:	00 00 20 ec ec 00 00 00 00 00 08 0f 0f 08 00 00     .. .............
    4688:	00 00 00 00 20 ec ec 00 00 30 70 40 40 7f 3f 00     .... ....0p@@.?.
    4698:	04 fc fc 80 c0 60 20 00 08 0f 0f 01 03 0e 0c 00     .....` .........
    46a8:	00 00 04 fc fc 00 00 00 00 00 08 0f 0f 08 00 00     ................
    46b8:	e0 e0 60 c0 60 e0 c0 00 0f 0f 00 07 00 0f 0f 00     ..`.`...........
    46c8:	20 e0 c0 20 20 e0 c0 00 00 0f 0f 00 00 0f 0f 00      ..  ...........
    46d8:	c0 e0 20 20 20 e0 c0 00 07 0f 08 08 08 0f 07 00     ..   ...........
    46e8:	20 e0 c0 20 20 e0 c0 00 40 7f 7f 48 08 0f 07 00      ..  ...@..H....
    46f8:	c0 e0 20 20 c0 e0 20 00 07 0f 08 48 7f 7f 40 00     ..  .. ....H..@.
    4708:	20 e0 c0 60 20 e0 c0 00 08 0f 0f 08 00 00 00 00      ..` ...........
    4718:	40 e0 a0 20 20 60 40 00 04 0c 09 09 0b 0e 04 00     @..  `@.........
    4728:	20 20 f8 fc 20 20 00 00 00 00 07 0f 08 0c 04 00       ..  ..........
    4738:	e0 e0 00 00 e0 e0 00 00 07 0f 08 08 07 0f 08 00     ................
    4748:	00 e0 e0 00 00 e0 e0 00 00 03 07 0c 0c 07 03 00     ................
    4758:	e0 e0 00 80 00 e0 e0 00 07 0f 0c 07 0c 0f 07 00     ................
    4768:	20 60 c0 80 c0 60 20 00 08 0c 07 03 07 0c 08 00      `...` .........
    4778:	e0 e0 00 00 00 e0 e0 00 47 4f 48 48 68 3f 1f 00     ........GOHHh?..
    4788:	60 60 20 a0 e0 60 20 00 0c 0e 0b 09 08 0c 0c 00     `` ..` .........
    4798:	00 40 40 f8 bc 04 04 00 00 00 00 07 0f 08 08 00     .@@.............
    47a8:	00 00 00 bc bc 00 00 00 00 00 00 0f 0f 00 00 00     ................
    47b8:	00 04 04 bc f8 40 40 00 00 08 08 0f 07 00 00 00     .....@@.........
    47c8:	80 c0 40 c0 80 c0 40 00 00 00 00 00 00 00 00 00     ..@...@.........
    47d8:	80 c0 60 30 60 c0 80 00 07 07 04 04 04 07 07 00     ..`0`...........

000047e8 <__ctors_end>:
    47e8:	11 24       	eor	r1, r1
    47ea:	1f be       	out	0x3f, r1	; 63
    47ec:	cf ef       	ldi	r28, 0xFF	; 255
    47ee:	d0 e1       	ldi	r29, 0x10	; 16
    47f0:	de bf       	out	0x3e, r29	; 62
    47f2:	cd bf       	out	0x3d, r28	; 61

000047f4 <__do_copy_data>:
    47f4:	12 e0       	ldi	r17, 0x02	; 2
    47f6:	a0 e0       	ldi	r26, 0x00	; 0
    47f8:	b1 e0       	ldi	r27, 0x01	; 1
    47fa:	e0 e1       	ldi	r30, 0x10	; 16
    47fc:	f4 e5       	ldi	r31, 0x54	; 84
    47fe:	00 e0       	ldi	r16, 0x00	; 0
    4800:	0b bf       	out	0x3b, r16	; 59
    4802:	02 c0       	rjmp	.+4      	; 0x4808 <__do_copy_data+0x14>
    4804:	07 90       	elpm	r0, Z+
    4806:	0d 92       	st	X+, r0
    4808:	a0 31       	cpi	r26, 0x10	; 16
    480a:	b1 07       	cpc	r27, r17
    480c:	d9 f7       	brne	.-10     	; 0x4804 <__do_copy_data+0x10>

0000480e <__do_clear_bss>:
    480e:	12 e0       	ldi	r17, 0x02	; 2
    4810:	a0 e1       	ldi	r26, 0x10	; 16
    4812:	b2 e0       	ldi	r27, 0x02	; 2
    4814:	01 c0       	rjmp	.+2      	; 0x4818 <.do_clear_bss_start>

00004816 <.do_clear_bss_loop>:
    4816:	1d 92       	st	X+, r1

00004818 <.do_clear_bss_start>:
    4818:	a5 33       	cpi	r26, 0x35	; 53
    481a:	b1 07       	cpc	r27, r17
    481c:	e1 f7       	brne	.-8      	; 0x4816 <.do_clear_bss_loop>
    481e:	0e 94 ba 29 	call	0x5374	; 0x5374 <main>
    4822:	0c 94 06 2a 	jmp	0x540c	; 0x540c <_exit>

00004826 <__bad_interrupt>:
    4826:	0c 94 00 00 	jmp	0	; 0x0 <__vectors>

0000482a <delay>:
byte   cursor_val, cursor_x, cursor_y;		/* x and y cursor position(0-3, 0-15) */
byte   Korean_buffer[32];			/* 32 byte Korean font buffer */
/*-------------------------------------------------------------------------*/
/*    */
void    delay( word del )
{
    482a:	df 93       	push	r29
    482c:	cf 93       	push	r28
    482e:	00 d0       	rcall	.+0      	; 0x4830 <delay+0x6>
    4830:	0f 92       	push	r0
    4832:	cd b7       	in	r28, 0x3d	; 61
    4834:	de b7       	in	r29, 0x3e	; 62
    4836:	9a 83       	std	Y+2, r25	; 0x02
    4838:	89 83       	std	Y+1, r24	; 0x01
    483a:	02 c0       	rjmp	.+4      	; 0x4840 <delay+0x16>
	while( del-- )
	{
	  asm("PUSH   R0");        // 2 cycle +
    483c:	0f 92       	push	r0
      asm("POP    R0");        // 2 cycle +
    483e:	0f 90       	pop	r0
byte   Korean_buffer[32];			/* 32 byte Korean font buffer */
/*-------------------------------------------------------------------------*/
/*    */
void    delay( word del )
{
	while( del-- )
    4840:	1b 82       	std	Y+3, r1	; 0x03
    4842:	89 81       	ldd	r24, Y+1	; 0x01
    4844:	9a 81       	ldd	r25, Y+2	; 0x02
    4846:	00 97       	sbiw	r24, 0x00	; 0
    4848:	11 f0       	breq	.+4      	; 0x484e <delay+0x24>
    484a:	81 e0       	ldi	r24, 0x01	; 1
    484c:	8b 83       	std	Y+3, r24	; 0x03
    484e:	89 81       	ldd	r24, Y+1	; 0x01
    4850:	9a 81       	ldd	r25, Y+2	; 0x02
    4852:	01 97       	sbiw	r24, 0x01	; 1
    4854:	9a 83       	std	Y+2, r25	; 0x02
    4856:	89 83       	std	Y+1, r24	; 0x01
    4858:	8b 81       	ldd	r24, Y+3	; 0x03
    485a:	88 23       	and	r24, r24
    485c:	79 f7       	brne	.-34     	; 0x483c <delay+0x12>
	{
	  asm("PUSH   R0");        // 2 cycle +
      asm("POP    R0");        // 2 cycle +
	}
}
    485e:	0f 90       	pop	r0
    4860:	0f 90       	pop	r0
    4862:	0f 90       	pop	r0
    4864:	cf 91       	pop	r28
    4866:	df 91       	pop	r29
    4868:	08 95       	ret

0000486a <delay_us>:

void delay_us(word time_us)
{
    486a:	df 93       	push	r29
    486c:	cf 93       	push	r28
    486e:	00 d0       	rcall	.+0      	; 0x4870 <delay_us+0x6>
    4870:	00 d0       	rcall	.+0      	; 0x4872 <delay_us+0x8>
    4872:	cd b7       	in	r28, 0x3d	; 61
    4874:	de b7       	in	r29, 0x3e	; 62
    4876:	9a 83       	std	Y+2, r25	; 0x02
    4878:	89 83       	std	Y+1, r24	; 0x01
   register word i;
   for(i=0; i<time_us; i++){   // 4 cycle +
    487a:	1c 82       	std	Y+4, r1	; 0x04
    487c:	1b 82       	std	Y+3, r1	; 0x03
    487e:	0c c0       	rjmp	.+24     	; 0x4898 <delay_us+0x2e>
      asm("PUSH   R0");        // 2 cycle +
    4880:	0f 92       	push	r0
      asm("POP    R0");        // 2 cycle +
    4882:	0f 90       	pop	r0
      asm("PUSH   R0");        // 2 cycle +
    4884:	0f 92       	push	r0
      asm("POP    R0");        // 2 cycle +
    4886:	0f 90       	pop	r0
      asm("PUSH   R0");        // 2 cycle +
    4888:	0f 92       	push	r0
      asm("POP    R0");        // 2 cycle   = 16 cycle = 1us for 16MHz
    488a:	0f 90       	pop	r0
}

void delay_us(word time_us)
{
   register word i;
   for(i=0; i<time_us; i++){   // 4 cycle +
    488c:	2b 81       	ldd	r18, Y+3	; 0x03
    488e:	3c 81       	ldd	r19, Y+4	; 0x04
    4890:	2f 5f       	subi	r18, 0xFF	; 255
    4892:	3f 4f       	sbci	r19, 0xFF	; 255
    4894:	3c 83       	std	Y+4, r19	; 0x04
    4896:	2b 83       	std	Y+3, r18	; 0x03
    4898:	89 81       	ldd	r24, Y+1	; 0x01
    489a:	9a 81       	ldd	r25, Y+2	; 0x02
    489c:	2b 81       	ldd	r18, Y+3	; 0x03
    489e:	3c 81       	ldd	r19, Y+4	; 0x04
    48a0:	28 17       	cp	r18, r24
    48a2:	39 07       	cpc	r19, r25
    48a4:	68 f3       	brcs	.-38     	; 0x4880 <delay_us+0x16>
      asm("PUSH   R0");        // 2 cycle +
      asm("POP    R0");        // 2 cycle +
      asm("PUSH   R0");        // 2 cycle +
      asm("POP    R0");        // 2 cycle   = 16 cycle = 1us for 16MHz
   }
}
    48a6:	0f 90       	pop	r0
    48a8:	0f 90       	pop	r0
    48aa:	0f 90       	pop	r0
    48ac:	0f 90       	pop	r0
    48ae:	cf 91       	pop	r28
    48b0:	df 91       	pop	r29
    48b2:	08 95       	ret

000048b4 <delay_ms>:

void delay_ms(word time_ms)
{
    48b4:	df 93       	push	r29
    48b6:	cf 93       	push	r28
    48b8:	00 d0       	rcall	.+0      	; 0x48ba <delay_ms+0x6>
    48ba:	00 d0       	rcall	.+0      	; 0x48bc <delay_ms+0x8>
    48bc:	cd b7       	in	r28, 0x3d	; 61
    48be:	de b7       	in	r29, 0x3e	; 62
    48c0:	9a 83       	std	Y+2, r25	; 0x02
    48c2:	89 83       	std	Y+1, r24	; 0x01
   register word i;
   for(i=0;i<time_ms;i++) delay_us(450);
    48c4:	1c 82       	std	Y+4, r1	; 0x04
    48c6:	1b 82       	std	Y+3, r1	; 0x03
    48c8:	0a c0       	rjmp	.+20     	; 0x48de <delay_ms+0x2a>
    48ca:	82 ec       	ldi	r24, 0xC2	; 194
    48cc:	91 e0       	ldi	r25, 0x01	; 1
    48ce:	0e 94 35 24 	call	0x486a	; 0x486a <delay_us>
    48d2:	2b 81       	ldd	r18, Y+3	; 0x03
    48d4:	3c 81       	ldd	r19, Y+4	; 0x04
    48d6:	2f 5f       	subi	r18, 0xFF	; 255
    48d8:	3f 4f       	sbci	r19, 0xFF	; 255
    48da:	3c 83       	std	Y+4, r19	; 0x04
    48dc:	2b 83       	std	Y+3, r18	; 0x03
    48de:	89 81       	ldd	r24, Y+1	; 0x01
    48e0:	9a 81       	ldd	r25, Y+2	; 0x02
    48e2:	2b 81       	ldd	r18, Y+3	; 0x03
    48e4:	3c 81       	ldd	r19, Y+4	; 0x04
    48e6:	28 17       	cp	r18, r24
    48e8:	39 07       	cpc	r19, r25
    48ea:	78 f3       	brcs	.-34     	; 0x48ca <delay_ms+0x16>
}
    48ec:	0f 90       	pop	r0
    48ee:	0f 90       	pop	r0
    48f0:	0f 90       	pop	r0
    48f2:	0f 90       	pop	r0
    48f4:	cf 91       	pop	r28
    48f6:	df 91       	pop	r29
    48f8:	08 95       	ret

000048fa <write_cmd>:


/* lcd   */
//cmd	 = instruction
void    write_cmd( byte  cs, byte  cmd )
{
    48fa:	df 93       	push	r29
    48fc:	cf 93       	push	r28
    48fe:	00 d0       	rcall	.+0      	; 0x4900 <write_cmd+0x6>
    4900:	cd b7       	in	r28, 0x3d	; 61
    4902:	de b7       	in	r29, 0x3e	; 62
    4904:	89 83       	std	Y+1, r24	; 0x01
    4906:	6a 83       	std	Y+2, r22	; 0x02
	//check_bf();
	LCD_CTRL = cs & CS_ALL;	
    4908:	eb e3       	ldi	r30, 0x3B	; 59
    490a:	f0 e0       	ldi	r31, 0x00	; 0
    490c:	89 81       	ldd	r24, Y+1	; 0x01
    490e:	88 71       	andi	r24, 0x18	; 24
    4910:	80 83       	st	Z, r24
	SetE(1);	
    4912:	ab e3       	ldi	r26, 0x3B	; 59
    4914:	b0 e0       	ldi	r27, 0x00	; 0
    4916:	eb e3       	ldi	r30, 0x3B	; 59
    4918:	f0 e0       	ldi	r31, 0x00	; 0
    491a:	80 81       	ld	r24, Z
    491c:	84 60       	ori	r24, 0x04	; 4
    491e:	8c 93       	st	X, r24
	LCD_OUTP = cmd;	
    4920:	e5 e3       	ldi	r30, 0x35	; 53
    4922:	f0 e0       	ldi	r31, 0x00	; 0
    4924:	8a 81       	ldd	r24, Y+2	; 0x02
    4926:	80 83       	st	Z, r24
	delay(1);
    4928:	81 e0       	ldi	r24, 0x01	; 1
    492a:	90 e0       	ldi	r25, 0x00	; 0
    492c:	0e 94 15 24 	call	0x482a	; 0x482a <delay>
	SetE(0);
    4930:	ab e3       	ldi	r26, 0x3B	; 59
    4932:	b0 e0       	ldi	r27, 0x00	; 0
    4934:	eb e3       	ldi	r30, 0x3B	; 59
    4936:	f0 e0       	ldi	r31, 0x00	; 0
    4938:	80 81       	ld	r24, Z
    493a:	8b 7f       	andi	r24, 0xFB	; 251
    493c:	8c 93       	st	X, r24
	delay(1);
    493e:	81 e0       	ldi	r24, 0x01	; 1
    4940:	90 e0       	ldi	r25, 0x00	; 0
    4942:	0e 94 15 24 	call	0x482a	; 0x482a <delay>
	LCD_CTRL=0x00;
    4946:	eb e3       	ldi	r30, 0x3B	; 59
    4948:	f0 e0       	ldi	r31, 0x00	; 0
    494a:	10 82       	st	Z, r1
	delay(10);
    494c:	8a e0       	ldi	r24, 0x0A	; 10
    494e:	90 e0       	ldi	r25, 0x00	; 0
    4950:	0e 94 15 24 	call	0x482a	; 0x482a <delay>
}
    4954:	0f 90       	pop	r0
    4956:	0f 90       	pop	r0
    4958:	cf 91       	pop	r28
    495a:	df 91       	pop	r29
    495c:	08 95       	ret

0000495e <write_data>:

/* 1    */
//cmd	 = data
void    write_data( byte cs, byte ch )
{	
    495e:	df 93       	push	r29
    4960:	cf 93       	push	r28
    4962:	00 d0       	rcall	.+0      	; 0x4964 <write_data+0x6>
    4964:	cd b7       	in	r28, 0x3d	; 61
    4966:	de b7       	in	r29, 0x3e	; 62
    4968:	89 83       	std	Y+1, r24	; 0x01
    496a:	6a 83       	std	Y+2, r22	; 0x02
	//check_bf();
	LCD_CTRL = (cs & CS_ALL) | DI;	
    496c:	eb e3       	ldi	r30, 0x3B	; 59
    496e:	f0 e0       	ldi	r31, 0x00	; 0
    4970:	89 81       	ldd	r24, Y+1	; 0x01
    4972:	88 71       	andi	r24, 0x18	; 24
    4974:	81 60       	ori	r24, 0x01	; 1
    4976:	80 83       	st	Z, r24
	SetE(1);
    4978:	ab e3       	ldi	r26, 0x3B	; 59
    497a:	b0 e0       	ldi	r27, 0x00	; 0
    497c:	eb e3       	ldi	r30, 0x3B	; 59
    497e:	f0 e0       	ldi	r31, 0x00	; 0
    4980:	80 81       	ld	r24, Z
    4982:	84 60       	ori	r24, 0x04	; 4
    4984:	8c 93       	st	X, r24
	LCD_OUTP = ch;	
    4986:	e5 e3       	ldi	r30, 0x35	; 53
    4988:	f0 e0       	ldi	r31, 0x00	; 0
    498a:	8a 81       	ldd	r24, Y+2	; 0x02
    498c:	80 83       	st	Z, r24
	delay(1);
    498e:	81 e0       	ldi	r24, 0x01	; 1
    4990:	90 e0       	ldi	r25, 0x00	; 0
    4992:	0e 94 15 24 	call	0x482a	; 0x482a <delay>
	SetE(0);
    4996:	ab e3       	ldi	r26, 0x3B	; 59
    4998:	b0 e0       	ldi	r27, 0x00	; 0
    499a:	eb e3       	ldi	r30, 0x3B	; 59
    499c:	f0 e0       	ldi	r31, 0x00	; 0
    499e:	80 81       	ld	r24, Z
    49a0:	8b 7f       	andi	r24, 0xFB	; 251
    49a2:	8c 93       	st	X, r24
	delay(1);
    49a4:	81 e0       	ldi	r24, 0x01	; 1
    49a6:	90 e0       	ldi	r25, 0x00	; 0
    49a8:	0e 94 15 24 	call	0x482a	; 0x482a <delay>
	LCD_CTRL=0x00;
    49ac:	eb e3       	ldi	r30, 0x3B	; 59
    49ae:	f0 e0       	ldi	r31, 0x00	; 0
    49b0:	10 82       	st	Z, r1
	delay(10);	
    49b2:	8a e0       	ldi	r24, 0x0A	; 10
    49b4:	90 e0       	ldi	r25, 0x00	; 0
    49b6:	0e 94 15 24 	call	0x482a	; 0x482a <delay>
}
    49ba:	0f 90       	pop	r0
    49bc:	0f 90       	pop	r0
    49be:	cf 91       	pop	r28
    49c0:	df 91       	pop	r29
    49c2:	08 95       	ret

000049c4 <lcd_clear>:


/* GLCD Clear */
void	lcd_clear(void)
{
    49c4:	df 93       	push	r29
    49c6:	cf 93       	push	r28
    49c8:	00 d0       	rcall	.+0      	; 0x49ca <lcd_clear+0x6>
    49ca:	00 d0       	rcall	.+0      	; 0x49cc <lcd_clear+0x8>
    49cc:	cd b7       	in	r28, 0x3d	; 61
    49ce:	de b7       	in	r29, 0x3e	; 62
	byte i, j, x, y;
	LCD_CTRL=0x00;
    49d0:	eb e3       	ldi	r30, 0x3B	; 59
    49d2:	f0 e0       	ldi	r31, 0x00	; 0
    49d4:	10 82       	st	Z, r1
	write_cmd(CS_ALL,0x3f);
    49d6:	88 e1       	ldi	r24, 0x18	; 24
    49d8:	6f e3       	ldi	r22, 0x3F	; 63
    49da:	0e 94 7d 24 	call	0x48fa	; 0x48fa <write_cmd>
	write_cmd(CS_ALL,0xc0);
    49de:	88 e1       	ldi	r24, 0x18	; 24
    49e0:	60 ec       	ldi	r22, 0xC0	; 192
    49e2:	0e 94 7d 24 	call	0x48fa	; 0x48fa <write_cmd>
	x = 0xB8;					/* X start address */
    49e6:	88 eb       	ldi	r24, 0xB8	; 184
    49e8:	8a 83       	std	Y+2, r24	; 0x02
	y = 0x40;					/* Y start address */
    49ea:	80 e4       	ldi	r24, 0x40	; 64
    49ec:	89 83       	std	Y+1, r24	; 0x01
	for(i = 0; i <= 7; i++)
    49ee:	1c 82       	std	Y+4, r1	; 0x04
    49f0:	1a c0       	rjmp	.+52     	; 0x4a26 <lcd_clear+0x62>
	{ 
		write_cmd(CS_ALL,x);
    49f2:	88 e1       	ldi	r24, 0x18	; 24
    49f4:	6a 81       	ldd	r22, Y+2	; 0x02
    49f6:	0e 94 7d 24 	call	0x48fa	; 0x48fa <write_cmd>
		write_cmd(CS_ALL,y);
    49fa:	88 e1       	ldi	r24, 0x18	; 24
    49fc:	69 81       	ldd	r22, Y+1	; 0x01
    49fe:	0e 94 7d 24 	call	0x48fa	; 0x48fa <write_cmd>
		for(j = 0; j < 64; j++)
    4a02:	1b 82       	std	Y+3, r1	; 0x03
    4a04:	07 c0       	rjmp	.+14     	; 0x4a14 <lcd_clear+0x50>
			write_data(CS_ALL,0x00);		/* clear CS1 and CS2 */
    4a06:	88 e1       	ldi	r24, 0x18	; 24
    4a08:	60 e0       	ldi	r22, 0x00	; 0
    4a0a:	0e 94 af 24 	call	0x495e	; 0x495e <write_data>
	y = 0x40;					/* Y start address */
	for(i = 0; i <= 7; i++)
	{ 
		write_cmd(CS_ALL,x);
		write_cmd(CS_ALL,y);
		for(j = 0; j < 64; j++)
    4a0e:	8b 81       	ldd	r24, Y+3	; 0x03
    4a10:	8f 5f       	subi	r24, 0xFF	; 255
    4a12:	8b 83       	std	Y+3, r24	; 0x03
    4a14:	8b 81       	ldd	r24, Y+3	; 0x03
    4a16:	80 34       	cpi	r24, 0x40	; 64
    4a18:	b0 f3       	brcs	.-20     	; 0x4a06 <lcd_clear+0x42>
			write_data(CS_ALL,0x00);		/* clear CS1 and CS2 */
		x++;
    4a1a:	8a 81       	ldd	r24, Y+2	; 0x02
    4a1c:	8f 5f       	subi	r24, 0xFF	; 255
    4a1e:	8a 83       	std	Y+2, r24	; 0x02
	LCD_CTRL=0x00;
	write_cmd(CS_ALL,0x3f);
	write_cmd(CS_ALL,0xc0);
	x = 0xB8;					/* X start address */
	y = 0x40;					/* Y start address */
	for(i = 0; i <= 7; i++)
    4a20:	8c 81       	ldd	r24, Y+4	; 0x04
    4a22:	8f 5f       	subi	r24, 0xFF	; 255
    4a24:	8c 83       	std	Y+4, r24	; 0x04
    4a26:	8c 81       	ldd	r24, Y+4	; 0x04
    4a28:	88 30       	cpi	r24, 0x08	; 8
    4a2a:	18 f3       	brcs	.-58     	; 0x49f2 <lcd_clear+0x2e>
		write_cmd(CS_ALL,y);
		for(j = 0; j < 64; j++)
			write_data(CS_ALL,0x00);		/* clear CS1 and CS2 */
		x++;
	}
}
    4a2c:	0f 90       	pop	r0
    4a2e:	0f 90       	pop	r0
    4a30:	0f 90       	pop	r0
    4a32:	0f 90       	pop	r0
    4a34:	cf 91       	pop	r28
    4a36:	df 91       	pop	r29
    4a38:	08 95       	ret

00004a3a <lcd_init>:

void 	lcd_init(void)
{
    4a3a:	df 93       	push	r29
    4a3c:	cf 93       	push	r28
    4a3e:	cd b7       	in	r28, 0x3d	; 61
    4a40:	de b7       	in	r29, 0x3e	; 62
	write_cmd( CS_ALL, DISPON );
    4a42:	88 e1       	ldi	r24, 0x18	; 24
    4a44:	6f e3       	ldi	r22, 0x3F	; 63
    4a46:	0e 94 7d 24 	call	0x48fa	; 0x48fa <write_cmd>
	write_cmd( CS_ALL, 0xc0 );	/*  	*/
    4a4a:	88 e1       	ldi	r24, 0x18	; 24
    4a4c:	60 ec       	ldi	r22, 0xC0	; 192
    4a4e:	0e 94 7d 24 	call	0x48fa	; 0x48fa <write_cmd>
	write_cmd( CS_ALL, 0xb8 );	/* X   = 0	*/
    4a52:	88 e1       	ldi	r24, 0x18	; 24
    4a54:	68 eb       	ldi	r22, 0xB8	; 184
    4a56:	0e 94 7d 24 	call	0x48fa	; 0x48fa <write_cmd>
	write_cmd( CS_ALL, 0x40 );	/* Y   = 0	*/  
    4a5a:	88 e1       	ldi	r24, 0x18	; 24
    4a5c:	60 e4       	ldi	r22, 0x40	; 64
    4a5e:	0e 94 7d 24 	call	0x48fa	; 0x48fa <write_cmd>
}
    4a62:	cf 91       	pop	r28
    4a64:	df 91       	pop	r29
    4a66:	08 95       	ret

00004a68 <lcd_xy>:

/*    */
void lcd_xy( byte x, byte y )	/* set English character position on GLCD */
{
    4a68:	df 93       	push	r29
    4a6a:	cf 93       	push	r28
    4a6c:	00 d0       	rcall	.+0      	; 0x4a6e <lcd_xy+0x6>
    4a6e:	cd b7       	in	r28, 0x3d	; 61
    4a70:	de b7       	in	r29, 0x3e	; 62
    4a72:	89 83       	std	Y+1, r24	; 0x01
    4a74:	6a 83       	std	Y+2, r22	; 0x02
	xcoordinate = x;				/* x = 0 - 3  */
    4a76:	89 81       	ldd	r24, Y+1	; 0x01
    4a78:	80 93 14 02 	sts	0x0214, r24
	ycoordinate = y;				/* y = 0 - 15 */
    4a7c:	8a 81       	ldd	r24, Y+2	; 0x02
    4a7e:	80 93 12 02 	sts	0x0212, r24
}
    4a82:	0f 90       	pop	r0
    4a84:	0f 90       	pop	r0
    4a86:	cf 91       	pop	r28
    4a88:	df 91       	pop	r29
    4a8a:	08 95       	ret

00004a8c <lcd_xy_row>:

/*-------------------------------------------------------------------------*/

void lcd_xy_row(byte row,byte x,byte y)	/* set character upper/lower row on GLCD */
{ 
    4a8c:	df 93       	push	r29
    4a8e:	cf 93       	push	r28
    4a90:	00 d0       	rcall	.+0      	; 0x4a92 <lcd_xy_row+0x6>
    4a92:	0f 92       	push	r0
    4a94:	cd b7       	in	r28, 0x3d	; 61
    4a96:	de b7       	in	r29, 0x3e	; 62
    4a98:	89 83       	std	Y+1, r24	; 0x01
    4a9a:	6a 83       	std	Y+2, r22	; 0x02
    4a9c:	4b 83       	std	Y+3, r20	; 0x03
  lcd_xy(x,y);						/* x = 0 - 3, y = 0 - 15 */
    4a9e:	8a 81       	ldd	r24, Y+2	; 0x02
    4aa0:	6b 81       	ldd	r22, Y+3	; 0x03
    4aa2:	0e 94 34 25 	call	0x4a68	; 0x4a68 <lcd_xy>

  if(row == 0)						/* if upper row, set Y address */
    4aa6:	89 81       	ldd	r24, Y+1	; 0x01
    4aa8:	88 23       	and	r24, r24
    4aaa:	69 f4       	brne	.+26     	; 0x4ac6 <lcd_xy_row+0x3a>
    write_cmd(CS_ALL,0xB8 + x*2);
    4aac:	8a 81       	ldd	r24, Y+2	; 0x02
    4aae:	88 2f       	mov	r24, r24
    4ab0:	90 e0       	ldi	r25, 0x00	; 0
    4ab2:	84 5a       	subi	r24, 0xA4	; 164
    4ab4:	9f 4f       	sbci	r25, 0xFF	; 255
    4ab6:	88 0f       	add	r24, r24
    4ab8:	99 1f       	adc	r25, r25
    4aba:	98 2f       	mov	r25, r24
    4abc:	88 e1       	ldi	r24, 0x18	; 24
    4abe:	69 2f       	mov	r22, r25
    4ac0:	0e 94 7d 24 	call	0x48fa	; 0x48fa <write_cmd>
    4ac4:	0d c0       	rjmp	.+26     	; 0x4ae0 <lcd_xy_row+0x54>
  else							/* if lower row, set Y address + 1 */
    write_cmd(CS_ALL,0xB8 + x*2 + 1);
    4ac6:	8a 81       	ldd	r24, Y+2	; 0x02
    4ac8:	88 2f       	mov	r24, r24
    4aca:	90 e0       	ldi	r25, 0x00	; 0
    4acc:	84 5a       	subi	r24, 0xA4	; 164
    4ace:	9f 4f       	sbci	r25, 0xFF	; 255
    4ad0:	88 0f       	add	r24, r24
    4ad2:	99 1f       	adc	r25, r25
    4ad4:	98 2f       	mov	r25, r24
    4ad6:	9f 5f       	subi	r25, 0xFF	; 255
    4ad8:	88 e1       	ldi	r24, 0x18	; 24
    4ada:	69 2f       	mov	r22, r25
    4adc:	0e 94 7d 24 	call	0x48fa	; 0x48fa <write_cmd>

  if(ycoordinate <= 7)					/* if y <= 7, CS1 Y address */
    4ae0:	80 91 12 02 	lds	r24, 0x0212
    4ae4:	88 30       	cpi	r24, 0x08	; 8
    4ae6:	80 f4       	brcc	.+32     	; 0x4b08 <lcd_xy_row+0x7c>
    write_cmd(CS1,0x40 + y*8);
    4ae8:	8b 81       	ldd	r24, Y+3	; 0x03
    4aea:	88 2f       	mov	r24, r24
    4aec:	90 e0       	ldi	r25, 0x00	; 0
    4aee:	08 96       	adiw	r24, 0x08	; 8
    4af0:	88 0f       	add	r24, r24
    4af2:	99 1f       	adc	r25, r25
    4af4:	88 0f       	add	r24, r24
    4af6:	99 1f       	adc	r25, r25
    4af8:	88 0f       	add	r24, r24
    4afa:	99 1f       	adc	r25, r25
    4afc:	98 2f       	mov	r25, r24
    4afe:	88 e0       	ldi	r24, 0x08	; 8
    4b00:	69 2f       	mov	r22, r25
    4b02:	0e 94 7d 24 	call	0x48fa	; 0x48fa <write_cmd>
    4b06:	0e c0       	rjmp	.+28     	; 0x4b24 <lcd_xy_row+0x98>
  else							/* if y >= 8, CS2 Y address */
    write_cmd(CS2,0x40 + (y-8)*8);
    4b08:	8b 81       	ldd	r24, Y+3	; 0x03
    4b0a:	88 2f       	mov	r24, r24
    4b0c:	90 e0       	ldi	r25, 0x00	; 0
    4b0e:	88 0f       	add	r24, r24
    4b10:	99 1f       	adc	r25, r25
    4b12:	88 0f       	add	r24, r24
    4b14:	99 1f       	adc	r25, r25
    4b16:	88 0f       	add	r24, r24
    4b18:	99 1f       	adc	r25, r25
    4b1a:	98 2f       	mov	r25, r24
    4b1c:	80 e1       	ldi	r24, 0x10	; 16
    4b1e:	69 2f       	mov	r22, r25
    4b20:	0e 94 7d 24 	call	0x48fa	; 0x48fa <write_cmd>
}
    4b24:	0f 90       	pop	r0
    4b26:	0f 90       	pop	r0
    4b28:	0f 90       	pop	r0
    4b2a:	cf 91       	pop	r28
    4b2c:	df 91       	pop	r29
    4b2e:	08 95       	ret

00004b30 <lcd_English>:

void lcd_English(byte Ecode)			//* display a 8x16 Dot English(ASCII) on GLCD /
{ byte x, y, i, signal;
    4b30:	df 93       	push	r29
    4b32:	cf 93       	push	r28
    4b34:	cd b7       	in	r28, 0x3d	; 61
    4b36:	de b7       	in	r29, 0x3e	; 62
    4b38:	2e 97       	sbiw	r28, 0x0e	; 14
    4b3a:	0f b6       	in	r0, 0x3f	; 63
    4b3c:	f8 94       	cli
    4b3e:	de bf       	out	0x3e, r29	; 62
    4b40:	0f be       	out	0x3f, r0	; 63
    4b42:	cd bf       	out	0x3d, r28	; 61
    4b44:	8e 87       	std	Y+14, r24	; 0x0e

  x = xcoordinate;
    4b46:	80 91 14 02 	lds	r24, 0x0214
    4b4a:	8d 87       	std	Y+13, r24	; 0x0d
  y = ycoordinate;
    4b4c:	80 91 12 02 	lds	r24, 0x0212
    4b50:	8c 87       	std	Y+12, r24	; 0x0c

  lcd_xy_row(0,x,y);					//* display upper row /
    4b52:	80 e0       	ldi	r24, 0x00	; 0
    4b54:	6d 85       	ldd	r22, Y+13	; 0x0d
    4b56:	4c 85       	ldd	r20, Y+12	; 0x0c
    4b58:	0e 94 46 25 	call	0x4a8c	; 0x4a8c <lcd_xy_row>
  if(ycoordinate <= 7)					//* if y <= 7, CS1 /
    4b5c:	80 91 12 02 	lds	r24, 0x0212
    4b60:	88 30       	cpi	r24, 0x08	; 8
    4b62:	18 f4       	brcc	.+6      	; 0x4b6a <lcd_English+0x3a>
    signal = CS1;
    4b64:	88 e0       	ldi	r24, 0x08	; 8
    4b66:	8a 87       	std	Y+10, r24	; 0x0a
    4b68:	02 c0       	rjmp	.+4      	; 0x4b6e <lcd_English+0x3e>
  else							//* if y >= 8, CS2 /
    signal = CS2;
    4b6a:	80 e1       	ldi	r24, 0x10	; 16
    4b6c:	8a 87       	std	Y+10, r24	; 0x0a
  for(i = 0; i <= 7; i++)
    4b6e:	1b 86       	std	Y+11, r1	; 0x0b
    4b70:	21 c0       	rjmp	.+66     	; 0x4bb4 <lcd_English+0x84>
    write_data(signal,pgm_read_byte(&English[Ecode][i]));
    4b72:	48 ee       	ldi	r20, 0xE8	; 232
    4b74:	5f e3       	ldi	r21, 0x3F	; 63
    4b76:	8e 85       	ldd	r24, Y+14	; 0x0e
    4b78:	88 2f       	mov	r24, r24
    4b7a:	90 e0       	ldi	r25, 0x00	; 0
    4b7c:	9c 01       	movw	r18, r24
    4b7e:	22 95       	swap	r18
    4b80:	32 95       	swap	r19
    4b82:	30 7f       	andi	r19, 0xF0	; 240
    4b84:	32 27       	eor	r19, r18
    4b86:	20 7f       	andi	r18, 0xF0	; 240
    4b88:	32 27       	eor	r19, r18
    4b8a:	8b 85       	ldd	r24, Y+11	; 0x0b
    4b8c:	88 2f       	mov	r24, r24
    4b8e:	90 e0       	ldi	r25, 0x00	; 0
    4b90:	82 0f       	add	r24, r18
    4b92:	93 1f       	adc	r25, r19
    4b94:	84 0f       	add	r24, r20
    4b96:	95 1f       	adc	r25, r21
    4b98:	99 87       	std	Y+9, r25	; 0x09
    4b9a:	88 87       	std	Y+8, r24	; 0x08
    4b9c:	e8 85       	ldd	r30, Y+8	; 0x08
    4b9e:	f9 85       	ldd	r31, Y+9	; 0x09
    4ba0:	84 91       	lpm	r24, Z+
    4ba2:	8f 83       	std	Y+7, r24	; 0x07
    4ba4:	9f 81       	ldd	r25, Y+7	; 0x07
    4ba6:	8a 85       	ldd	r24, Y+10	; 0x0a
    4ba8:	69 2f       	mov	r22, r25
    4baa:	0e 94 af 24 	call	0x495e	; 0x495e <write_data>
  lcd_xy_row(0,x,y);					//* display upper row /
  if(ycoordinate <= 7)					//* if y <= 7, CS1 /
    signal = CS1;
  else							//* if y >= 8, CS2 /
    signal = CS2;
  for(i = 0; i <= 7; i++)
    4bae:	8b 85       	ldd	r24, Y+11	; 0x0b
    4bb0:	8f 5f       	subi	r24, 0xFF	; 255
    4bb2:	8b 87       	std	Y+11, r24	; 0x0b
    4bb4:	8b 85       	ldd	r24, Y+11	; 0x0b
    4bb6:	88 30       	cpi	r24, 0x08	; 8
    4bb8:	e0 f2       	brcs	.-72     	; 0x4b72 <lcd_English+0x42>
    write_data(signal,pgm_read_byte(&English[Ecode][i]));

  lcd_xy_row(1,x,y);					//* display lower row /
    4bba:	81 e0       	ldi	r24, 0x01	; 1
    4bbc:	6d 85       	ldd	r22, Y+13	; 0x0d
    4bbe:	4c 85       	ldd	r20, Y+12	; 0x0c
    4bc0:	0e 94 46 25 	call	0x4a8c	; 0x4a8c <lcd_xy_row>
  if(ycoordinate <= 7)					//* if y <= 7, CS1 /
    4bc4:	80 91 12 02 	lds	r24, 0x0212
    4bc8:	88 30       	cpi	r24, 0x08	; 8
    4bca:	18 f4       	brcc	.+6      	; 0x4bd2 <lcd_English+0xa2>
    signal = CS1;
    4bcc:	88 e0       	ldi	r24, 0x08	; 8
    4bce:	8a 87       	std	Y+10, r24	; 0x0a
    4bd0:	02 c0       	rjmp	.+4      	; 0x4bd6 <lcd_English+0xa6>
  else							//* if y >= 8, CS2 /
    signal = CS2;
    4bd2:	80 e1       	ldi	r24, 0x10	; 16
    4bd4:	8a 87       	std	Y+10, r24	; 0x0a
  for(i = 8; i <= 15; i++)
    4bd6:	88 e0       	ldi	r24, 0x08	; 8
    4bd8:	8b 87       	std	Y+11, r24	; 0x0b
    4bda:	52 c0       	rjmp	.+164    	; 0x4c80 <lcd_English+0x150>
    { if((cursor_val == 1) && (xcoordinate == cursor_x) && (ycoordinate == cursor_y))
    4bdc:	80 91 11 02 	lds	r24, 0x0211
    4be0:	81 30       	cpi	r24, 0x01	; 1
    4be2:	69 f5       	brne	.+90     	; 0x4c3e <lcd_English+0x10e>
    4be4:	90 91 14 02 	lds	r25, 0x0214
    4be8:	80 91 13 02 	lds	r24, 0x0213
    4bec:	98 17       	cp	r25, r24
    4bee:	39 f5       	brne	.+78     	; 0x4c3e <lcd_English+0x10e>
    4bf0:	90 91 12 02 	lds	r25, 0x0212
    4bf4:	80 91 10 02 	lds	r24, 0x0210
    4bf8:	98 17       	cp	r25, r24
    4bfa:	09 f5       	brne	.+66     	; 0x4c3e <lcd_English+0x10e>
        write_data(signal,pgm_read_byte(&English[Ecode][i]) | 0x80);
    4bfc:	48 ee       	ldi	r20, 0xE8	; 232
    4bfe:	5f e3       	ldi	r21, 0x3F	; 63
    4c00:	8e 85       	ldd	r24, Y+14	; 0x0e
    4c02:	88 2f       	mov	r24, r24
    4c04:	90 e0       	ldi	r25, 0x00	; 0
    4c06:	9c 01       	movw	r18, r24
    4c08:	22 95       	swap	r18
    4c0a:	32 95       	swap	r19
    4c0c:	30 7f       	andi	r19, 0xF0	; 240
    4c0e:	32 27       	eor	r19, r18
    4c10:	20 7f       	andi	r18, 0xF0	; 240
    4c12:	32 27       	eor	r19, r18
    4c14:	8b 85       	ldd	r24, Y+11	; 0x0b
    4c16:	88 2f       	mov	r24, r24
    4c18:	90 e0       	ldi	r25, 0x00	; 0
    4c1a:	82 0f       	add	r24, r18
    4c1c:	93 1f       	adc	r25, r19
    4c1e:	84 0f       	add	r24, r20
    4c20:	95 1f       	adc	r25, r21
    4c22:	9e 83       	std	Y+6, r25	; 0x06
    4c24:	8d 83       	std	Y+5, r24	; 0x05
    4c26:	ed 81       	ldd	r30, Y+5	; 0x05
    4c28:	fe 81       	ldd	r31, Y+6	; 0x06
    4c2a:	84 91       	lpm	r24, Z+
    4c2c:	8c 83       	std	Y+4, r24	; 0x04
    4c2e:	8c 81       	ldd	r24, Y+4	; 0x04
    4c30:	98 2f       	mov	r25, r24
    4c32:	90 68       	ori	r25, 0x80	; 128
    4c34:	8a 85       	ldd	r24, Y+10	; 0x0a
    4c36:	69 2f       	mov	r22, r25
    4c38:	0e 94 af 24 	call	0x495e	; 0x495e <write_data>
    4c3c:	1e c0       	rjmp	.+60     	; 0x4c7a <lcd_English+0x14a>
      else
        write_data(signal,pgm_read_byte(&English[Ecode][i]));
    4c3e:	48 ee       	ldi	r20, 0xE8	; 232
    4c40:	5f e3       	ldi	r21, 0x3F	; 63
    4c42:	8e 85       	ldd	r24, Y+14	; 0x0e
    4c44:	88 2f       	mov	r24, r24
    4c46:	90 e0       	ldi	r25, 0x00	; 0
    4c48:	9c 01       	movw	r18, r24
    4c4a:	22 95       	swap	r18
    4c4c:	32 95       	swap	r19
    4c4e:	30 7f       	andi	r19, 0xF0	; 240
    4c50:	32 27       	eor	r19, r18
    4c52:	20 7f       	andi	r18, 0xF0	; 240
    4c54:	32 27       	eor	r19, r18
    4c56:	8b 85       	ldd	r24, Y+11	; 0x0b
    4c58:	88 2f       	mov	r24, r24
    4c5a:	90 e0       	ldi	r25, 0x00	; 0
    4c5c:	82 0f       	add	r24, r18
    4c5e:	93 1f       	adc	r25, r19
    4c60:	84 0f       	add	r24, r20
    4c62:	95 1f       	adc	r25, r21
    4c64:	9b 83       	std	Y+3, r25	; 0x03
    4c66:	8a 83       	std	Y+2, r24	; 0x02
    4c68:	ea 81       	ldd	r30, Y+2	; 0x02
    4c6a:	fb 81       	ldd	r31, Y+3	; 0x03
    4c6c:	84 91       	lpm	r24, Z+
    4c6e:	89 83       	std	Y+1, r24	; 0x01
    4c70:	99 81       	ldd	r25, Y+1	; 0x01
    4c72:	8a 85       	ldd	r24, Y+10	; 0x0a
    4c74:	69 2f       	mov	r22, r25
    4c76:	0e 94 af 24 	call	0x495e	; 0x495e <write_data>
  lcd_xy_row(1,x,y);					//* display lower row /
  if(ycoordinate <= 7)					//* if y <= 7, CS1 /
    signal = CS1;
  else							//* if y >= 8, CS2 /
    signal = CS2;
  for(i = 8; i <= 15; i++)
    4c7a:	8b 85       	ldd	r24, Y+11	; 0x0b
    4c7c:	8f 5f       	subi	r24, 0xFF	; 255
    4c7e:	8b 87       	std	Y+11, r24	; 0x0b
    4c80:	8b 85       	ldd	r24, Y+11	; 0x0b
    4c82:	80 31       	cpi	r24, 0x10	; 16
    4c84:	08 f4       	brcc	.+2      	; 0x4c88 <lcd_English+0x158>
    4c86:	aa cf       	rjmp	.-172    	; 0x4bdc <lcd_English+0xac>
        write_data(signal,pgm_read_byte(&English[Ecode][i]) | 0x80);
      else
        write_data(signal,pgm_read_byte(&English[Ecode][i]));
    }

  ycoordinate++;
    4c88:	80 91 12 02 	lds	r24, 0x0212
    4c8c:	8f 5f       	subi	r24, 0xFF	; 255
    4c8e:	80 93 12 02 	sts	0x0212, r24
  if(ycoordinate==16){
    4c92:	80 91 12 02 	lds	r24, 0x0212
    4c96:	80 31       	cpi	r24, 0x10	; 16
    4c98:	39 f4       	brne	.+14     	; 0x4ca8 <lcd_English+0x178>
  	  ycoordinate = 0;
    4c9a:	10 92 12 02 	sts	0x0212, r1
	  xcoordinate++;
    4c9e:	80 91 14 02 	lds	r24, 0x0214
    4ca2:	8f 5f       	subi	r24, 0xFF	; 255
    4ca4:	80 93 14 02 	sts	0x0214, r24
	}
}
    4ca8:	2e 96       	adiw	r28, 0x0e	; 14
    4caa:	0f b6       	in	r0, 0x3f	; 63
    4cac:	f8 94       	cli
    4cae:	de bf       	out	0x3e, r29	; 62
    4cb0:	0f be       	out	0x3f, r0	; 63
    4cb2:	cd bf       	out	0x3d, r28	; 61
    4cb4:	cf 91       	pop	r28
    4cb6:	df 91       	pop	r29
    4cb8:	08 95       	ret

00004cba <lcd_Korean>:

void lcd_Korean(word  Kcode)			//* display a 16x16 Dot Korean on GLCD /
{ byte  x, y, i, signal;
    4cba:	df 93       	push	r29
    4cbc:	cf 93       	push	r28
    4cbe:	cd b7       	in	r28, 0x3d	; 61
    4cc0:	de b7       	in	r29, 0x3e	; 62
    4cc2:	68 97       	sbiw	r28, 0x18	; 24
    4cc4:	0f b6       	in	r0, 0x3f	; 63
    4cc6:	f8 94       	cli
    4cc8:	de bf       	out	0x3e, r29	; 62
    4cca:	0f be       	out	0x3f, r0	; 63
    4ccc:	cd bf       	out	0x3d, r28	; 61
    4cce:	98 8f       	std	Y+24, r25	; 0x18
    4cd0:	8f 8b       	std	Y+23, r24	; 0x17
  byte  cho_5bit, joong_5bit, jong_5bit;
  byte  cho_bul, joong_bul, jong_bul, jong_flag;
  word   character;
  if(ycoordinate==15)
    4cd2:	80 91 12 02 	lds	r24, 0x0212
    4cd6:	8f 30       	cpi	r24, 0x0F	; 15
    4cd8:	19 f4       	brne	.+6      	; 0x4ce0 <lcd_Korean+0x26>
    lcd_English(0x20);
    4cda:	80 e2       	ldi	r24, 0x20	; 32
    4cdc:	0e 94 98 25 	call	0x4b30	; 0x4b30 <lcd_English>
  cho_5bit = table_initial[(Kcode >> 10) & 0x001F];		//* get cho, joong, jong 5 bit /
    4ce0:	8f 89       	ldd	r24, Y+23	; 0x17
    4ce2:	98 8d       	ldd	r25, Y+24	; 0x18
    4ce4:	89 2f       	mov	r24, r25
    4ce6:	99 27       	eor	r25, r25
    4ce8:	86 95       	lsr	r24
    4cea:	86 95       	lsr	r24
    4cec:	8f 71       	andi	r24, 0x1F	; 31
    4cee:	90 70       	andi	r25, 0x00	; 0
    4cf0:	fc 01       	movw	r30, r24
    4cf2:	e0 50       	subi	r30, 0x00	; 0
    4cf4:	ff 4f       	sbci	r31, 0xFF	; 255
    4cf6:	80 81       	ld	r24, Z
    4cf8:	8a 8b       	std	Y+18, r24	; 0x12
  joong_5bit = table_medial[(Kcode >> 5) & 0x001F];
    4cfa:	8f 89       	ldd	r24, Y+23	; 0x17
    4cfc:	98 8d       	ldd	r25, Y+24	; 0x18
    4cfe:	96 95       	lsr	r25
    4d00:	87 95       	ror	r24
    4d02:	92 95       	swap	r25
    4d04:	82 95       	swap	r24
    4d06:	8f 70       	andi	r24, 0x0F	; 15
    4d08:	89 27       	eor	r24, r25
    4d0a:	9f 70       	andi	r25, 0x0F	; 15
    4d0c:	89 27       	eor	r24, r25
    4d0e:	8f 71       	andi	r24, 0x1F	; 31
    4d10:	90 70       	andi	r25, 0x00	; 0
    4d12:	fc 01       	movw	r30, r24
    4d14:	eb 5e       	subi	r30, 0xEB	; 235
    4d16:	fe 4f       	sbci	r31, 0xFE	; 254
    4d18:	80 81       	ld	r24, Z
    4d1a:	89 8b       	std	Y+17, r24	; 0x11
  jong_5bit = table_final[Kcode & 0x001F];
    4d1c:	8f 89       	ldd	r24, Y+23	; 0x17
    4d1e:	98 8d       	ldd	r25, Y+24	; 0x18
    4d20:	8f 71       	andi	r24, 0x1F	; 31
    4d22:	90 70       	andi	r25, 0x00	; 0
    4d24:	fc 01       	movw	r30, r24
    4d26:	ed 5c       	subi	r30, 0xCD	; 205
    4d28:	fe 4f       	sbci	r31, 0xFE	; 254
    4d2a:	80 81       	ld	r24, Z
    4d2c:	88 8b       	std	Y+16, r24	; 0x10

  if(jong_5bit == 0)					//* don't have jongsung /
    4d2e:	88 89       	ldd	r24, Y+16	; 0x10
    4d30:	88 23       	and	r24, r24
    4d32:	a1 f4       	brne	.+40     	; 0x4d5c <lcd_Korean+0xa2>
    { jong_flag = 0;
    4d34:	1c 86       	std	Y+12, r1	; 0x0c
      cho_bul = bul_initial1[joong_5bit];
    4d36:	89 89       	ldd	r24, Y+17	; 0x11
    4d38:	88 2f       	mov	r24, r24
    4d3a:	90 e0       	ldi	r25, 0x00	; 0
    4d3c:	fc 01       	movw	r30, r24
    4d3e:	ef 5a       	subi	r30, 0xAF	; 175
    4d40:	fe 4f       	sbci	r31, 0xFE	; 254
    4d42:	80 81       	ld	r24, Z
    4d44:	8f 87       	std	Y+15, r24	; 0x0f
      if((cho_5bit == 1) || (cho_5bit == 16)) joong_bul = 0;
    4d46:	8a 89       	ldd	r24, Y+18	; 0x12
    4d48:	81 30       	cpi	r24, 0x01	; 1
    4d4a:	19 f0       	breq	.+6      	; 0x4d52 <lcd_Korean+0x98>
    4d4c:	8a 89       	ldd	r24, Y+18	; 0x12
    4d4e:	80 31       	cpi	r24, 0x10	; 16
    4d50:	11 f4       	brne	.+4      	; 0x4d56 <lcd_Korean+0x9c>
    4d52:	1e 86       	std	Y+14, r1	; 0x0e
    4d54:	20 c0       	rjmp	.+64     	; 0x4d96 <lcd_Korean+0xdc>
      else                                    joong_bul = 1;
    4d56:	81 e0       	ldi	r24, 0x01	; 1
    4d58:	8e 87       	std	Y+14, r24	; 0x0e
    4d5a:	1d c0       	rjmp	.+58     	; 0x4d96 <lcd_Korean+0xdc>
    }
  else							//* have jongsung /
    { jong_flag = 1;
    4d5c:	81 e0       	ldi	r24, 0x01	; 1
    4d5e:	8c 87       	std	Y+12, r24	; 0x0c
      cho_bul = bul_initial2[joong_5bit];
    4d60:	89 89       	ldd	r24, Y+17	; 0x11
    4d62:	88 2f       	mov	r24, r24
    4d64:	90 e0       	ldi	r25, 0x00	; 0
    4d66:	fc 01       	movw	r30, r24
    4d68:	e9 59       	subi	r30, 0x99	; 153
    4d6a:	fe 4f       	sbci	r31, 0xFE	; 254
    4d6c:	80 81       	ld	r24, Z
    4d6e:	8f 87       	std	Y+15, r24	; 0x0f
      if((cho_5bit == 1) || (cho_5bit == 16)) joong_bul = 2;
    4d70:	8a 89       	ldd	r24, Y+18	; 0x12
    4d72:	81 30       	cpi	r24, 0x01	; 1
    4d74:	19 f0       	breq	.+6      	; 0x4d7c <lcd_Korean+0xc2>
    4d76:	8a 89       	ldd	r24, Y+18	; 0x12
    4d78:	80 31       	cpi	r24, 0x10	; 16
    4d7a:	19 f4       	brne	.+6      	; 0x4d82 <lcd_Korean+0xc8>
    4d7c:	82 e0       	ldi	r24, 0x02	; 2
    4d7e:	8e 87       	std	Y+14, r24	; 0x0e
    4d80:	02 c0       	rjmp	.+4      	; 0x4d86 <lcd_Korean+0xcc>
      else                                    joong_bul = 3;
    4d82:	83 e0       	ldi	r24, 0x03	; 3
    4d84:	8e 87       	std	Y+14, r24	; 0x0e
      jong_bul = bul_final[joong_5bit];
    4d86:	89 89       	ldd	r24, Y+17	; 0x11
    4d88:	88 2f       	mov	r24, r24
    4d8a:	90 e0       	ldi	r25, 0x00	; 0
    4d8c:	fc 01       	movw	r30, r24
    4d8e:	e3 58       	subi	r30, 0x83	; 131
    4d90:	fe 4f       	sbci	r31, 0xFE	; 254
    4d92:	80 81       	ld	r24, Z
    4d94:	8d 87       	std	Y+13, r24	; 0x0d
    }

  character = cho_bul*20 + cho_5bit;			//* copy chosung font /
    4d96:	8f 85       	ldd	r24, Y+15	; 0x0f
    4d98:	88 2f       	mov	r24, r24
    4d9a:	90 e0       	ldi	r25, 0x00	; 0
    4d9c:	9c 01       	movw	r18, r24
    4d9e:	22 0f       	add	r18, r18
    4da0:	33 1f       	adc	r19, r19
    4da2:	22 0f       	add	r18, r18
    4da4:	33 1f       	adc	r19, r19
    4da6:	c9 01       	movw	r24, r18
    4da8:	88 0f       	add	r24, r24
    4daa:	99 1f       	adc	r25, r25
    4dac:	88 0f       	add	r24, r24
    4dae:	99 1f       	adc	r25, r25
    4db0:	28 0f       	add	r18, r24
    4db2:	39 1f       	adc	r19, r25
    4db4:	8a 89       	ldd	r24, Y+18	; 0x12
    4db6:	88 2f       	mov	r24, r24
    4db8:	90 e0       	ldi	r25, 0x00	; 0
    4dba:	82 0f       	add	r24, r18
    4dbc:	93 1f       	adc	r25, r19
    4dbe:	9b 87       	std	Y+11, r25	; 0x0b
    4dc0:	8a 87       	std	Y+10, r24	; 0x0a
  for(i = 0; i <= 31; i++)
    4dc2:	1c 8a       	std	Y+20, r1	; 0x14
    4dc4:	25 c0       	rjmp	.+74     	; 0x4e10 <lcd_Korean+0x156>
    Korean_buffer[i] = pgm_read_byte(&Korean[character][i]);
    4dc6:	8c 89       	ldd	r24, Y+20	; 0x14
    4dc8:	68 2f       	mov	r22, r24
    4dca:	70 e0       	ldi	r23, 0x00	; 0
    4dcc:	48 ee       	ldi	r20, 0xE8	; 232
    4dce:	52 e1       	ldi	r21, 0x12	; 18
    4dd0:	8a 85       	ldd	r24, Y+10	; 0x0a
    4dd2:	9b 85       	ldd	r25, Y+11	; 0x0b
    4dd4:	9c 01       	movw	r18, r24
    4dd6:	22 0f       	add	r18, r18
    4dd8:	33 1f       	adc	r19, r19
    4dda:	22 95       	swap	r18
    4ddc:	32 95       	swap	r19
    4dde:	30 7f       	andi	r19, 0xF0	; 240
    4de0:	32 27       	eor	r19, r18
    4de2:	20 7f       	andi	r18, 0xF0	; 240
    4de4:	32 27       	eor	r19, r18
    4de6:	8c 89       	ldd	r24, Y+20	; 0x14
    4de8:	88 2f       	mov	r24, r24
    4dea:	90 e0       	ldi	r25, 0x00	; 0
    4dec:	82 0f       	add	r24, r18
    4dee:	93 1f       	adc	r25, r19
    4df0:	84 0f       	add	r24, r20
    4df2:	95 1f       	adc	r25, r21
    4df4:	99 87       	std	Y+9, r25	; 0x09
    4df6:	88 87       	std	Y+8, r24	; 0x08
    4df8:	e8 85       	ldd	r30, Y+8	; 0x08
    4dfa:	f9 85       	ldd	r31, Y+9	; 0x09
    4dfc:	84 91       	lpm	r24, Z+
    4dfe:	8f 83       	std	Y+7, r24	; 0x07
    4e00:	8f 81       	ldd	r24, Y+7	; 0x07
    4e02:	fb 01       	movw	r30, r22
    4e04:	eb 5e       	subi	r30, 0xEB	; 235
    4e06:	fd 4f       	sbci	r31, 0xFD	; 253
    4e08:	80 83       	st	Z, r24
      else                                    joong_bul = 3;
      jong_bul = bul_final[joong_5bit];
    }

  character = cho_bul*20 + cho_5bit;			//* copy chosung font /
  for(i = 0; i <= 31; i++)
    4e0a:	8c 89       	ldd	r24, Y+20	; 0x14
    4e0c:	8f 5f       	subi	r24, 0xFF	; 255
    4e0e:	8c 8b       	std	Y+20, r24	; 0x14
    4e10:	8c 89       	ldd	r24, Y+20	; 0x14
    4e12:	80 32       	cpi	r24, 0x20	; 32
    4e14:	c0 f2       	brcs	.-80     	; 0x4dc6 <lcd_Korean+0x10c>
    Korean_buffer[i] = pgm_read_byte(&Korean[character][i]);

  character = 8*20 + joong_bul*22 + joong_5bit;		//* OR joongsung font /
    4e16:	8e 85       	ldd	r24, Y+14	; 0x0e
    4e18:	48 2f       	mov	r20, r24
    4e1a:	50 e0       	ldi	r21, 0x00	; 0
    4e1c:	ca 01       	movw	r24, r20
    4e1e:	9c 01       	movw	r18, r24
    4e20:	22 0f       	add	r18, r18
    4e22:	33 1f       	adc	r19, r19
    4e24:	24 0f       	add	r18, r20
    4e26:	35 1f       	adc	r19, r21
    4e28:	c9 01       	movw	r24, r18
    4e2a:	88 0f       	add	r24, r24
    4e2c:	99 1f       	adc	r25, r25
    4e2e:	88 0f       	add	r24, r24
    4e30:	99 1f       	adc	r25, r25
    4e32:	88 0f       	add	r24, r24
    4e34:	99 1f       	adc	r25, r25
    4e36:	82 1b       	sub	r24, r18
    4e38:	93 0b       	sbc	r25, r19
    4e3a:	84 0f       	add	r24, r20
    4e3c:	95 1f       	adc	r25, r21
    4e3e:	9c 01       	movw	r18, r24
    4e40:	20 56       	subi	r18, 0x60	; 96
    4e42:	3f 4f       	sbci	r19, 0xFF	; 255
    4e44:	89 89       	ldd	r24, Y+17	; 0x11
    4e46:	88 2f       	mov	r24, r24
    4e48:	90 e0       	ldi	r25, 0x00	; 0
    4e4a:	82 0f       	add	r24, r18
    4e4c:	93 1f       	adc	r25, r19
    4e4e:	9b 87       	std	Y+11, r25	; 0x0b
    4e50:	8a 87       	std	Y+10, r24	; 0x0a
  for(i = 0; i <= 31; i++)
    4e52:	1c 8a       	std	Y+20, r1	; 0x14
    4e54:	2d c0       	rjmp	.+90     	; 0x4eb0 <lcd_Korean+0x1f6>
    Korean_buffer[i] |= pgm_read_byte(&Korean[character][i]);
    4e56:	8c 89       	ldd	r24, Y+20	; 0x14
    4e58:	68 2f       	mov	r22, r24
    4e5a:	70 e0       	ldi	r23, 0x00	; 0
    4e5c:	8c 89       	ldd	r24, Y+20	; 0x14
    4e5e:	88 2f       	mov	r24, r24
    4e60:	90 e0       	ldi	r25, 0x00	; 0
    4e62:	fc 01       	movw	r30, r24
    4e64:	eb 5e       	subi	r30, 0xEB	; 235
    4e66:	fd 4f       	sbci	r31, 0xFD	; 253
    4e68:	a0 81       	ld	r26, Z
    4e6a:	48 ee       	ldi	r20, 0xE8	; 232
    4e6c:	52 e1       	ldi	r21, 0x12	; 18
    4e6e:	8a 85       	ldd	r24, Y+10	; 0x0a
    4e70:	9b 85       	ldd	r25, Y+11	; 0x0b
    4e72:	9c 01       	movw	r18, r24
    4e74:	22 0f       	add	r18, r18
    4e76:	33 1f       	adc	r19, r19
    4e78:	22 95       	swap	r18
    4e7a:	32 95       	swap	r19
    4e7c:	30 7f       	andi	r19, 0xF0	; 240
    4e7e:	32 27       	eor	r19, r18
    4e80:	20 7f       	andi	r18, 0xF0	; 240
    4e82:	32 27       	eor	r19, r18
    4e84:	8c 89       	ldd	r24, Y+20	; 0x14
    4e86:	88 2f       	mov	r24, r24
    4e88:	90 e0       	ldi	r25, 0x00	; 0
    4e8a:	82 0f       	add	r24, r18
    4e8c:	93 1f       	adc	r25, r19
    4e8e:	84 0f       	add	r24, r20
    4e90:	95 1f       	adc	r25, r21
    4e92:	9e 83       	std	Y+6, r25	; 0x06
    4e94:	8d 83       	std	Y+5, r24	; 0x05
    4e96:	ed 81       	ldd	r30, Y+5	; 0x05
    4e98:	fe 81       	ldd	r31, Y+6	; 0x06
    4e9a:	84 91       	lpm	r24, Z+
    4e9c:	8c 83       	std	Y+4, r24	; 0x04
    4e9e:	8c 81       	ldd	r24, Y+4	; 0x04
    4ea0:	8a 2b       	or	r24, r26
    4ea2:	fb 01       	movw	r30, r22
    4ea4:	eb 5e       	subi	r30, 0xEB	; 235
    4ea6:	fd 4f       	sbci	r31, 0xFD	; 253
    4ea8:	80 83       	st	Z, r24
  character = cho_bul*20 + cho_5bit;			//* copy chosung font /
  for(i = 0; i <= 31; i++)
    Korean_buffer[i] = pgm_read_byte(&Korean[character][i]);

  character = 8*20 + joong_bul*22 + joong_5bit;		//* OR joongsung font /
  for(i = 0; i <= 31; i++)
    4eaa:	8c 89       	ldd	r24, Y+20	; 0x14
    4eac:	8f 5f       	subi	r24, 0xFF	; 255
    4eae:	8c 8b       	std	Y+20, r24	; 0x14
    4eb0:	8c 89       	ldd	r24, Y+20	; 0x14
    4eb2:	80 32       	cpi	r24, 0x20	; 32
    4eb4:	80 f2       	brcs	.-96     	; 0x4e56 <lcd_Korean+0x19c>
    Korean_buffer[i] |= pgm_read_byte(&Korean[character][i]);

  if(jong_flag == 1)					//* if jongsung, OR jongsung font /
    4eb6:	8c 85       	ldd	r24, Y+12	; 0x0c
    4eb8:	81 30       	cpi	r24, 0x01	; 1
    4eba:	09 f0       	breq	.+2      	; 0x4ebe <lcd_Korean+0x204>
    4ebc:	4d c0       	rjmp	.+154    	; 0x4f58 <lcd_Korean+0x29e>
    { character = 8*20 + 4*22 +jong_bul*28 + jong_5bit;
    4ebe:	8d 85       	ldd	r24, Y+13	; 0x0d
    4ec0:	88 2f       	mov	r24, r24
    4ec2:	90 e0       	ldi	r25, 0x00	; 0
    4ec4:	9c 01       	movw	r18, r24
    4ec6:	22 0f       	add	r18, r18
    4ec8:	33 1f       	adc	r19, r19
    4eca:	22 0f       	add	r18, r18
    4ecc:	33 1f       	adc	r19, r19
    4ece:	c9 01       	movw	r24, r18
    4ed0:	88 0f       	add	r24, r24
    4ed2:	99 1f       	adc	r25, r25
    4ed4:	88 0f       	add	r24, r24
    4ed6:	99 1f       	adc	r25, r25
    4ed8:	88 0f       	add	r24, r24
    4eda:	99 1f       	adc	r25, r25
    4edc:	82 1b       	sub	r24, r18
    4ede:	93 0b       	sbc	r25, r19
    4ee0:	9c 01       	movw	r18, r24
    4ee2:	28 50       	subi	r18, 0x08	; 8
    4ee4:	3f 4f       	sbci	r19, 0xFF	; 255
    4ee6:	88 89       	ldd	r24, Y+16	; 0x10
    4ee8:	88 2f       	mov	r24, r24
    4eea:	90 e0       	ldi	r25, 0x00	; 0
    4eec:	82 0f       	add	r24, r18
    4eee:	93 1f       	adc	r25, r19
    4ef0:	9b 87       	std	Y+11, r25	; 0x0b
    4ef2:	8a 87       	std	Y+10, r24	; 0x0a
      for(i = 0; i <= 31; i++)
    4ef4:	1c 8a       	std	Y+20, r1	; 0x14
    4ef6:	2d c0       	rjmp	.+90     	; 0x4f52 <lcd_Korean+0x298>
        Korean_buffer[i] |= pgm_read_byte(&Korean[character][i]);
    4ef8:	8c 89       	ldd	r24, Y+20	; 0x14
    4efa:	68 2f       	mov	r22, r24
    4efc:	70 e0       	ldi	r23, 0x00	; 0
    4efe:	8c 89       	ldd	r24, Y+20	; 0x14
    4f00:	88 2f       	mov	r24, r24
    4f02:	90 e0       	ldi	r25, 0x00	; 0
    4f04:	fc 01       	movw	r30, r24
    4f06:	eb 5e       	subi	r30, 0xEB	; 235
    4f08:	fd 4f       	sbci	r31, 0xFD	; 253
    4f0a:	a0 81       	ld	r26, Z
    4f0c:	48 ee       	ldi	r20, 0xE8	; 232
    4f0e:	52 e1       	ldi	r21, 0x12	; 18
    4f10:	8a 85       	ldd	r24, Y+10	; 0x0a
    4f12:	9b 85       	ldd	r25, Y+11	; 0x0b
    4f14:	9c 01       	movw	r18, r24
    4f16:	22 0f       	add	r18, r18
    4f18:	33 1f       	adc	r19, r19
    4f1a:	22 95       	swap	r18
    4f1c:	32 95       	swap	r19
    4f1e:	30 7f       	andi	r19, 0xF0	; 240
    4f20:	32 27       	eor	r19, r18
    4f22:	20 7f       	andi	r18, 0xF0	; 240
    4f24:	32 27       	eor	r19, r18
    4f26:	8c 89       	ldd	r24, Y+20	; 0x14
    4f28:	88 2f       	mov	r24, r24
    4f2a:	90 e0       	ldi	r25, 0x00	; 0
    4f2c:	82 0f       	add	r24, r18
    4f2e:	93 1f       	adc	r25, r19
    4f30:	84 0f       	add	r24, r20
    4f32:	95 1f       	adc	r25, r21
    4f34:	9b 83       	std	Y+3, r25	; 0x03
    4f36:	8a 83       	std	Y+2, r24	; 0x02
    4f38:	ea 81       	ldd	r30, Y+2	; 0x02
    4f3a:	fb 81       	ldd	r31, Y+3	; 0x03
    4f3c:	84 91       	lpm	r24, Z+
    4f3e:	89 83       	std	Y+1, r24	; 0x01
    4f40:	89 81       	ldd	r24, Y+1	; 0x01
    4f42:	8a 2b       	or	r24, r26
    4f44:	fb 01       	movw	r30, r22
    4f46:	eb 5e       	subi	r30, 0xEB	; 235
    4f48:	fd 4f       	sbci	r31, 0xFD	; 253
    4f4a:	80 83       	st	Z, r24
  for(i = 0; i <= 31; i++)
    Korean_buffer[i] |= pgm_read_byte(&Korean[character][i]);

  if(jong_flag == 1)					//* if jongsung, OR jongsung font /
    { character = 8*20 + 4*22 +jong_bul*28 + jong_5bit;
      for(i = 0; i <= 31; i++)
    4f4c:	8c 89       	ldd	r24, Y+20	; 0x14
    4f4e:	8f 5f       	subi	r24, 0xFF	; 255
    4f50:	8c 8b       	std	Y+20, r24	; 0x14
    4f52:	8c 89       	ldd	r24, Y+20	; 0x14
    4f54:	80 32       	cpi	r24, 0x20	; 32
    4f56:	80 f2       	brcs	.-96     	; 0x4ef8 <lcd_Korean+0x23e>
        Korean_buffer[i] |= pgm_read_byte(&Korean[character][i]);
    }

  x = xcoordinate;
    4f58:	80 91 14 02 	lds	r24, 0x0214
    4f5c:	8e 8b       	std	Y+22, r24	; 0x16
  y = ycoordinate;
    4f5e:	80 91 12 02 	lds	r24, 0x0212
    4f62:	8d 8b       	std	Y+21, r24	; 0x15
  lcd_xy_row(0,x,y);					//* display upper left row /
    4f64:	80 e0       	ldi	r24, 0x00	; 0
    4f66:	6e 89       	ldd	r22, Y+22	; 0x16
    4f68:	4d 89       	ldd	r20, Y+21	; 0x15
    4f6a:	0e 94 46 25 	call	0x4a8c	; 0x4a8c <lcd_xy_row>
  if(ycoordinate <= 7)					//* if y <= 7, CS1 /
    4f6e:	80 91 12 02 	lds	r24, 0x0212
    4f72:	88 30       	cpi	r24, 0x08	; 8
    4f74:	18 f4       	brcc	.+6      	; 0x4f7c <lcd_Korean+0x2c2>
    signal = CS1;
    4f76:	88 e0       	ldi	r24, 0x08	; 8
    4f78:	8b 8b       	std	Y+19, r24	; 0x13
    4f7a:	02 c0       	rjmp	.+4      	; 0x4f80 <lcd_Korean+0x2c6>
  else							//* if y >= 8, CS2 /
    signal = CS2;
    4f7c:	80 e1       	ldi	r24, 0x10	; 16
    4f7e:	8b 8b       	std	Y+19, r24	; 0x13
  for(i = 0; i <= 7; i++)
    4f80:	1c 8a       	std	Y+20, r1	; 0x14
    4f82:	0e c0       	rjmp	.+28     	; 0x4fa0 <lcd_Korean+0x2e6>
    write_data(signal,Korean_buffer[i]);
    4f84:	8c 89       	ldd	r24, Y+20	; 0x14
    4f86:	88 2f       	mov	r24, r24
    4f88:	90 e0       	ldi	r25, 0x00	; 0
    4f8a:	fc 01       	movw	r30, r24
    4f8c:	eb 5e       	subi	r30, 0xEB	; 235
    4f8e:	fd 4f       	sbci	r31, 0xFD	; 253
    4f90:	90 81       	ld	r25, Z
    4f92:	8b 89       	ldd	r24, Y+19	; 0x13
    4f94:	69 2f       	mov	r22, r25
    4f96:	0e 94 af 24 	call	0x495e	; 0x495e <write_data>
  lcd_xy_row(0,x,y);					//* display upper left row /
  if(ycoordinate <= 7)					//* if y <= 7, CS1 /
    signal = CS1;
  else							//* if y >= 8, CS2 /
    signal = CS2;
  for(i = 0; i <= 7; i++)
    4f9a:	8c 89       	ldd	r24, Y+20	; 0x14
    4f9c:	8f 5f       	subi	r24, 0xFF	; 255
    4f9e:	8c 8b       	std	Y+20, r24	; 0x14
    4fa0:	8c 89       	ldd	r24, Y+20	; 0x14
    4fa2:	88 30       	cpi	r24, 0x08	; 8
    4fa4:	78 f3       	brcs	.-34     	; 0x4f84 <lcd_Korean+0x2ca>
    write_data(signal,Korean_buffer[i]);

  lcd_xy_row(1,x,y);					//* display lower left row /
    4fa6:	81 e0       	ldi	r24, 0x01	; 1
    4fa8:	6e 89       	ldd	r22, Y+22	; 0x16
    4faa:	4d 89       	ldd	r20, Y+21	; 0x15
    4fac:	0e 94 46 25 	call	0x4a8c	; 0x4a8c <lcd_xy_row>
  if(ycoordinate <= 7)					//* if y <= 7, CS1 /
    4fb0:	80 91 12 02 	lds	r24, 0x0212
    4fb4:	88 30       	cpi	r24, 0x08	; 8
    4fb6:	18 f4       	brcc	.+6      	; 0x4fbe <lcd_Korean+0x304>
    signal = CS1;
    4fb8:	88 e0       	ldi	r24, 0x08	; 8
    4fba:	8b 8b       	std	Y+19, r24	; 0x13
    4fbc:	02 c0       	rjmp	.+4      	; 0x4fc2 <lcd_Korean+0x308>
  else							//* if y >= 8, CS2 /
    signal = CS2;
    4fbe:	80 e1       	ldi	r24, 0x10	; 16
    4fc0:	8b 8b       	std	Y+19, r24	; 0x13
  for(i = 16; i <= 23; i++)
    4fc2:	80 e1       	ldi	r24, 0x10	; 16
    4fc4:	8c 8b       	std	Y+20, r24	; 0x14
    4fc6:	2c c0       	rjmp	.+88     	; 0x5020 <lcd_Korean+0x366>
    { if((cursor_val == 1) && (xcoordinate == cursor_x) && (ycoordinate == cursor_y))
    4fc8:	80 91 11 02 	lds	r24, 0x0211
    4fcc:	81 30       	cpi	r24, 0x01	; 1
    4fce:	d1 f4       	brne	.+52     	; 0x5004 <lcd_Korean+0x34a>
    4fd0:	90 91 14 02 	lds	r25, 0x0214
    4fd4:	80 91 13 02 	lds	r24, 0x0213
    4fd8:	98 17       	cp	r25, r24
    4fda:	a1 f4       	brne	.+40     	; 0x5004 <lcd_Korean+0x34a>
    4fdc:	90 91 12 02 	lds	r25, 0x0212
    4fe0:	80 91 10 02 	lds	r24, 0x0210
    4fe4:	98 17       	cp	r25, r24
    4fe6:	71 f4       	brne	.+28     	; 0x5004 <lcd_Korean+0x34a>
         write_data(signal,Korean_buffer[i] | 0x80);
    4fe8:	8c 89       	ldd	r24, Y+20	; 0x14
    4fea:	88 2f       	mov	r24, r24
    4fec:	90 e0       	ldi	r25, 0x00	; 0
    4fee:	fc 01       	movw	r30, r24
    4ff0:	eb 5e       	subi	r30, 0xEB	; 235
    4ff2:	fd 4f       	sbci	r31, 0xFD	; 253
    4ff4:	80 81       	ld	r24, Z
    4ff6:	98 2f       	mov	r25, r24
    4ff8:	90 68       	ori	r25, 0x80	; 128
    4ffa:	8b 89       	ldd	r24, Y+19	; 0x13
    4ffc:	69 2f       	mov	r22, r25
    4ffe:	0e 94 af 24 	call	0x495e	; 0x495e <write_data>
    5002:	0b c0       	rjmp	.+22     	; 0x501a <lcd_Korean+0x360>
      else
         write_data(signal,Korean_buffer[i]);
    5004:	8c 89       	ldd	r24, Y+20	; 0x14
    5006:	88 2f       	mov	r24, r24
    5008:	90 e0       	ldi	r25, 0x00	; 0
    500a:	fc 01       	movw	r30, r24
    500c:	eb 5e       	subi	r30, 0xEB	; 235
    500e:	fd 4f       	sbci	r31, 0xFD	; 253
    5010:	90 81       	ld	r25, Z
    5012:	8b 89       	ldd	r24, Y+19	; 0x13
    5014:	69 2f       	mov	r22, r25
    5016:	0e 94 af 24 	call	0x495e	; 0x495e <write_data>
  lcd_xy_row(1,x,y);					//* display lower left row /
  if(ycoordinate <= 7)					//* if y <= 7, CS1 /
    signal = CS1;
  else							//* if y >= 8, CS2 /
    signal = CS2;
  for(i = 16; i <= 23; i++)
    501a:	8c 89       	ldd	r24, Y+20	; 0x14
    501c:	8f 5f       	subi	r24, 0xFF	; 255
    501e:	8c 8b       	std	Y+20, r24	; 0x14
    5020:	8c 89       	ldd	r24, Y+20	; 0x14
    5022:	88 31       	cpi	r24, 0x18	; 24
    5024:	88 f2       	brcs	.-94     	; 0x4fc8 <lcd_Korean+0x30e>
         write_data(signal,Korean_buffer[i] | 0x80);
      else
         write_data(signal,Korean_buffer[i]);
    }

  ycoordinate++;
    5026:	80 91 12 02 	lds	r24, 0x0212
    502a:	8f 5f       	subi	r24, 0xFF	; 255
    502c:	80 93 12 02 	sts	0x0212, r24

  y = ycoordinate;
    5030:	80 91 12 02 	lds	r24, 0x0212
    5034:	8d 8b       	std	Y+21, r24	; 0x15
  lcd_xy_row(0,x,y);					///* display upper right row /
    5036:	80 e0       	ldi	r24, 0x00	; 0
    5038:	6e 89       	ldd	r22, Y+22	; 0x16
    503a:	4d 89       	ldd	r20, Y+21	; 0x15
    503c:	0e 94 46 25 	call	0x4a8c	; 0x4a8c <lcd_xy_row>
  if(ycoordinate <= 7)					///* if y <= 7, CS1 /
    5040:	80 91 12 02 	lds	r24, 0x0212
    5044:	88 30       	cpi	r24, 0x08	; 8
    5046:	18 f4       	brcc	.+6      	; 0x504e <lcd_Korean+0x394>
    signal = CS1;
    5048:	88 e0       	ldi	r24, 0x08	; 8
    504a:	8b 8b       	std	Y+19, r24	; 0x13
    504c:	02 c0       	rjmp	.+4      	; 0x5052 <lcd_Korean+0x398>
  else							///* if y >= 8, CS2 /
    signal = CS2;
    504e:	80 e1       	ldi	r24, 0x10	; 16
    5050:	8b 8b       	std	Y+19, r24	; 0x13
  for(i = 8; i <= 15; i++)
    5052:	88 e0       	ldi	r24, 0x08	; 8
    5054:	8c 8b       	std	Y+20, r24	; 0x14
    5056:	0e c0       	rjmp	.+28     	; 0x5074 <lcd_Korean+0x3ba>
    write_data(signal,Korean_buffer[i]);
    5058:	8c 89       	ldd	r24, Y+20	; 0x14
    505a:	88 2f       	mov	r24, r24
    505c:	90 e0       	ldi	r25, 0x00	; 0
    505e:	fc 01       	movw	r30, r24
    5060:	eb 5e       	subi	r30, 0xEB	; 235
    5062:	fd 4f       	sbci	r31, 0xFD	; 253
    5064:	90 81       	ld	r25, Z
    5066:	8b 89       	ldd	r24, Y+19	; 0x13
    5068:	69 2f       	mov	r22, r25
    506a:	0e 94 af 24 	call	0x495e	; 0x495e <write_data>
  lcd_xy_row(0,x,y);					///* display upper right row /
  if(ycoordinate <= 7)					///* if y <= 7, CS1 /
    signal = CS1;
  else							///* if y >= 8, CS2 /
    signal = CS2;
  for(i = 8; i <= 15; i++)
    506e:	8c 89       	ldd	r24, Y+20	; 0x14
    5070:	8f 5f       	subi	r24, 0xFF	; 255
    5072:	8c 8b       	std	Y+20, r24	; 0x14
    5074:	8c 89       	ldd	r24, Y+20	; 0x14
    5076:	80 31       	cpi	r24, 0x10	; 16
    5078:	78 f3       	brcs	.-34     	; 0x5058 <lcd_Korean+0x39e>
    write_data(signal,Korean_buffer[i]);

  lcd_xy_row(1,x,y);					//* display lower right row /
    507a:	81 e0       	ldi	r24, 0x01	; 1
    507c:	6e 89       	ldd	r22, Y+22	; 0x16
    507e:	4d 89       	ldd	r20, Y+21	; 0x15
    5080:	0e 94 46 25 	call	0x4a8c	; 0x4a8c <lcd_xy_row>
  if(ycoordinate <= 7)					//* if y <= 7, CS1 /
    5084:	80 91 12 02 	lds	r24, 0x0212
    5088:	88 30       	cpi	r24, 0x08	; 8
    508a:	18 f4       	brcc	.+6      	; 0x5092 <lcd_Korean+0x3d8>
    signal = CS1;
    508c:	88 e0       	ldi	r24, 0x08	; 8
    508e:	8b 8b       	std	Y+19, r24	; 0x13
    5090:	02 c0       	rjmp	.+4      	; 0x5096 <lcd_Korean+0x3dc>
  else							//* if y >= 8, CS2 /
    signal = CS2;
    5092:	80 e1       	ldi	r24, 0x10	; 16
    5094:	8b 8b       	std	Y+19, r24	; 0x13
  for(i = 24; i <= 31; i++)
    5096:	88 e1       	ldi	r24, 0x18	; 24
    5098:	8c 8b       	std	Y+20, r24	; 0x14
    509a:	32 c0       	rjmp	.+100    	; 0x5100 <lcd_Korean+0x446>
    { if((cursor_val == 1) && (xcoordinate == cursor_x) && (ycoordinate == (cursor_y+1)))
    509c:	80 91 11 02 	lds	r24, 0x0211
    50a0:	81 30       	cpi	r24, 0x01	; 1
    50a2:	01 f5       	brne	.+64     	; 0x50e4 <lcd_Korean+0x42a>
    50a4:	90 91 14 02 	lds	r25, 0x0214
    50a8:	80 91 13 02 	lds	r24, 0x0213
    50ac:	98 17       	cp	r25, r24
    50ae:	d1 f4       	brne	.+52     	; 0x50e4 <lcd_Korean+0x42a>
    50b0:	80 91 12 02 	lds	r24, 0x0212
    50b4:	28 2f       	mov	r18, r24
    50b6:	30 e0       	ldi	r19, 0x00	; 0
    50b8:	80 91 10 02 	lds	r24, 0x0210
    50bc:	88 2f       	mov	r24, r24
    50be:	90 e0       	ldi	r25, 0x00	; 0
    50c0:	01 96       	adiw	r24, 0x01	; 1
    50c2:	28 17       	cp	r18, r24
    50c4:	39 07       	cpc	r19, r25
    50c6:	71 f4       	brne	.+28     	; 0x50e4 <lcd_Korean+0x42a>
         write_data(signal,Korean_buffer[i] | 0x80);
    50c8:	8c 89       	ldd	r24, Y+20	; 0x14
    50ca:	88 2f       	mov	r24, r24
    50cc:	90 e0       	ldi	r25, 0x00	; 0
    50ce:	fc 01       	movw	r30, r24
    50d0:	eb 5e       	subi	r30, 0xEB	; 235
    50d2:	fd 4f       	sbci	r31, 0xFD	; 253
    50d4:	80 81       	ld	r24, Z
    50d6:	98 2f       	mov	r25, r24
    50d8:	90 68       	ori	r25, 0x80	; 128
    50da:	8b 89       	ldd	r24, Y+19	; 0x13
    50dc:	69 2f       	mov	r22, r25
    50de:	0e 94 af 24 	call	0x495e	; 0x495e <write_data>
    50e2:	0b c0       	rjmp	.+22     	; 0x50fa <lcd_Korean+0x440>
      else
         write_data(signal,Korean_buffer[i]);
    50e4:	8c 89       	ldd	r24, Y+20	; 0x14
    50e6:	88 2f       	mov	r24, r24
    50e8:	90 e0       	ldi	r25, 0x00	; 0
    50ea:	fc 01       	movw	r30, r24
    50ec:	eb 5e       	subi	r30, 0xEB	; 235
    50ee:	fd 4f       	sbci	r31, 0xFD	; 253
    50f0:	90 81       	ld	r25, Z
    50f2:	8b 89       	ldd	r24, Y+19	; 0x13
    50f4:	69 2f       	mov	r22, r25
    50f6:	0e 94 af 24 	call	0x495e	; 0x495e <write_data>
  lcd_xy_row(1,x,y);					//* display lower right row /
  if(ycoordinate <= 7)					//* if y <= 7, CS1 /
    signal = CS1;
  else							//* if y >= 8, CS2 /
    signal = CS2;
  for(i = 24; i <= 31; i++)
    50fa:	8c 89       	ldd	r24, Y+20	; 0x14
    50fc:	8f 5f       	subi	r24, 0xFF	; 255
    50fe:	8c 8b       	std	Y+20, r24	; 0x14
    5100:	8c 89       	ldd	r24, Y+20	; 0x14
    5102:	80 32       	cpi	r24, 0x20	; 32
    5104:	58 f2       	brcs	.-106    	; 0x509c <lcd_Korean+0x3e2>
         write_data(signal,Korean_buffer[i] | 0x80);
      else
         write_data(signal,Korean_buffer[i]);
    }

  ycoordinate++;
    5106:	80 91 12 02 	lds	r24, 0x0212
    510a:	8f 5f       	subi	r24, 0xFF	; 255
    510c:	80 93 12 02 	sts	0x0212, r24
   if(ycoordinate==16){
    5110:	80 91 12 02 	lds	r24, 0x0212
    5114:	80 31       	cpi	r24, 0x10	; 16
    5116:	39 f4       	brne	.+14     	; 0x5126 <lcd_Korean+0x46c>
  	  ycoordinate = 0;
    5118:	10 92 12 02 	sts	0x0212, r1
	  xcoordinate++;
    511c:	80 91 14 02 	lds	r24, 0x0214
    5120:	8f 5f       	subi	r24, 0xFF	; 255
    5122:	80 93 14 02 	sts	0x0214, r24
	}
}
    5126:	68 96       	adiw	r28, 0x18	; 24
    5128:	0f b6       	in	r0, 0x3f	; 63
    512a:	f8 94       	cli
    512c:	de bf       	out	0x3e, r29	; 62
    512e:	0f be       	out	0x3f, r0	; 63
    5130:	cd bf       	out	0x3d, r28	; 61
    5132:	cf 91       	pop	r28
    5134:	df 91       	pop	r29
    5136:	08 95       	ret

00005138 <kssm_convert>:
/*******************************************************************************
*      .
*******************************************************************************/

word kssm_convert(word kssm)
{
    5138:	df 93       	push	r29
    513a:	cf 93       	push	r28
    513c:	cd b7       	in	r28, 0x3d	; 61
    513e:	de b7       	in	r29, 0x3e	; 62
    5140:	60 97       	sbiw	r28, 0x10	; 16
    5142:	0f b6       	in	r0, 0x3f	; 63
    5144:	f8 94       	cli
    5146:	de bf       	out	0x3e, r29	; 62
    5148:	0f be       	out	0x3f, r0	; 63
    514a:	cd bf       	out	0x3d, r28	; 61
    514c:	9e 87       	std	Y+14, r25	; 0x0e
    514e:	8d 87       	std	Y+13, r24	; 0x0d
	byte high,low;
	word index;
    word return_data;

	high = (kssm>>8)&0xff;
    5150:	8d 85       	ldd	r24, Y+13	; 0x0d
    5152:	9e 85       	ldd	r25, Y+14	; 0x0e
    5154:	89 2f       	mov	r24, r25
    5156:	99 27       	eor	r25, r25
    5158:	8c 87       	std	Y+12, r24	; 0x0c
	low  =  kssm    &0xff;
    515a:	8d 85       	ldd	r24, Y+13	; 0x0d
    515c:	8b 87       	std	Y+11, r24	; 0x0b

	if ((kssm >= 0xb0a1)&&(kssm <= 0xc8fe))
    515e:	8d 85       	ldd	r24, Y+13	; 0x0d
    5160:	9e 85       	ldd	r25, Y+14	; 0x0e
    5162:	20 eb       	ldi	r18, 0xB0	; 176
    5164:	81 3a       	cpi	r24, 0xA1	; 161
    5166:	92 07       	cpc	r25, r18
    5168:	08 f4       	brcc	.+2      	; 0x516c <kssm_convert+0x34>
    516a:	52 c0       	rjmp	.+164    	; 0x5210 <kssm_convert+0xd8>
    516c:	8d 85       	ldd	r24, Y+13	; 0x0d
    516e:	9e 85       	ldd	r25, Y+14	; 0x0e
    5170:	48 ec       	ldi	r20, 0xC8	; 200
    5172:	8f 3f       	cpi	r24, 0xFF	; 255
    5174:	94 07       	cpc	r25, r20
    5176:	08 f0       	brcs	.+2      	; 0x517a <kssm_convert+0x42>
    5178:	4b c0       	rjmp	.+150    	; 0x5210 <kssm_convert+0xd8>
        {
		index  = (high - 0xb0) * 94 + low - 0xa1;
    517a:	8c 85       	ldd	r24, Y+12	; 0x0c
    517c:	28 2f       	mov	r18, r24
    517e:	30 e0       	ldi	r19, 0x00	; 0
    5180:	8e e5       	ldi	r24, 0x5E	; 94
    5182:	90 e0       	ldi	r25, 0x00	; 0
    5184:	ac 01       	movw	r20, r24
    5186:	24 9f       	mul	r18, r20
    5188:	c0 01       	movw	r24, r0
    518a:	25 9f       	mul	r18, r21
    518c:	90 0d       	add	r25, r0
    518e:	34 9f       	mul	r19, r20
    5190:	90 0d       	add	r25, r0
    5192:	11 24       	eor	r1, r1
    5194:	9c 01       	movw	r18, r24
    5196:	20 5a       	subi	r18, 0xA0	; 160
    5198:	30 44       	sbci	r19, 0x40	; 64
    519a:	8b 85       	ldd	r24, Y+11	; 0x0b
    519c:	88 2f       	mov	r24, r24
    519e:	90 e0       	ldi	r25, 0x00	; 0
    51a0:	82 0f       	add	r24, r18
    51a2:	93 1f       	adc	r25, r19
    51a4:	81 5a       	subi	r24, 0xA1	; 161
    51a6:	90 40       	sbci	r25, 0x00	; 0
    51a8:	9a 87       	std	Y+10, r25	; 0x0a
    51aa:	89 87       	std	Y+9, r24	; 0x09
		return_data  =  pgm_read_byte(&KSTable[index][0])*256;
    51ac:	2c e8       	ldi	r18, 0x8C	; 140
    51ae:	30 e0       	ldi	r19, 0x00	; 0
    51b0:	89 85       	ldd	r24, Y+9	; 0x09
    51b2:	9a 85       	ldd	r25, Y+10	; 0x0a
    51b4:	88 0f       	add	r24, r24
    51b6:	99 1f       	adc	r25, r25
    51b8:	82 0f       	add	r24, r18
    51ba:	93 1f       	adc	r25, r19
    51bc:	9e 83       	std	Y+6, r25	; 0x06
    51be:	8d 83       	std	Y+5, r24	; 0x05
    51c0:	ed 81       	ldd	r30, Y+5	; 0x05
    51c2:	fe 81       	ldd	r31, Y+6	; 0x06
    51c4:	84 91       	lpm	r24, Z+
    51c6:	8c 83       	std	Y+4, r24	; 0x04
    51c8:	8c 81       	ldd	r24, Y+4	; 0x04
    51ca:	88 2f       	mov	r24, r24
    51cc:	90 e0       	ldi	r25, 0x00	; 0
    51ce:	98 2f       	mov	r25, r24
    51d0:	88 27       	eor	r24, r24
    51d2:	98 87       	std	Y+8, r25	; 0x08
    51d4:	8f 83       	std	Y+7, r24	; 0x07
		return_data  |= pgm_read_byte(&KSTable[index][1]);
    51d6:	2c e8       	ldi	r18, 0x8C	; 140
    51d8:	30 e0       	ldi	r19, 0x00	; 0
    51da:	89 85       	ldd	r24, Y+9	; 0x09
    51dc:	9a 85       	ldd	r25, Y+10	; 0x0a
    51de:	88 0f       	add	r24, r24
    51e0:	99 1f       	adc	r25, r25
    51e2:	01 96       	adiw	r24, 0x01	; 1
    51e4:	82 0f       	add	r24, r18
    51e6:	93 1f       	adc	r25, r19
    51e8:	9b 83       	std	Y+3, r25	; 0x03
    51ea:	8a 83       	std	Y+2, r24	; 0x02
    51ec:	ea 81       	ldd	r30, Y+2	; 0x02
    51ee:	fb 81       	ldd	r31, Y+3	; 0x03
    51f0:	84 91       	lpm	r24, Z+
    51f2:	89 83       	std	Y+1, r24	; 0x01
    51f4:	89 81       	ldd	r24, Y+1	; 0x01
    51f6:	28 2f       	mov	r18, r24
    51f8:	30 e0       	ldi	r19, 0x00	; 0
    51fa:	8f 81       	ldd	r24, Y+7	; 0x07
    51fc:	98 85       	ldd	r25, Y+8	; 0x08
    51fe:	82 2b       	or	r24, r18
    5200:	93 2b       	or	r25, r19
    5202:	98 87       	std	Y+8, r25	; 0x08
    5204:	8f 83       	std	Y+7, r24	; 0x07
		return return_data;
    5206:	8f 81       	ldd	r24, Y+7	; 0x07
    5208:	98 85       	ldd	r25, Y+8	; 0x08
    520a:	98 8b       	std	Y+16, r25	; 0x10
    520c:	8f 87       	std	Y+15, r24	; 0x0f
    520e:	02 c0       	rjmp	.+4      	; 0x5214 <kssm_convert+0xdc>
	}
        return 0;
    5210:	18 8a       	std	Y+16, r1	; 0x10
    5212:	1f 86       	std	Y+15, r1	; 0x0f
    5214:	8f 85       	ldd	r24, Y+15	; 0x0f
    5216:	98 89       	ldd	r25, Y+16	; 0x10
}
    5218:	60 96       	adiw	r28, 0x10	; 16
    521a:	0f b6       	in	r0, 0x3f	; 63
    521c:	f8 94       	cli
    521e:	de bf       	out	0x3e, r29	; 62
    5220:	0f be       	out	0x3f, r0	; 63
    5222:	cd bf       	out	0x3d, r28	; 61
    5224:	cf 91       	pop	r28
    5226:	df 91       	pop	r29
    5228:	08 95       	ret

0000522a <lcd_string>:


void lcd_string(byte x, byte y, byte *string)	//* display a string on GLCD /
{ byte character1;
    522a:	df 93       	push	r29
    522c:	cf 93       	push	r28
    522e:	cd b7       	in	r28, 0x3d	; 61
    5230:	de b7       	in	r29, 0x3e	; 62
    5232:	27 97       	sbiw	r28, 0x07	; 7
    5234:	0f b6       	in	r0, 0x3f	; 63
    5236:	f8 94       	cli
    5238:	de bf       	out	0x3e, r29	; 62
    523a:	0f be       	out	0x3f, r0	; 63
    523c:	cd bf       	out	0x3d, r28	; 61
    523e:	8c 83       	std	Y+4, r24	; 0x04
    5240:	6d 83       	std	Y+5, r22	; 0x05
    5242:	5f 83       	std	Y+7, r21	; 0x07
    5244:	4e 83       	std	Y+6, r20	; 0x06
  word character2;

  lcd_xy(x,y);						//* x = 0 - 3, y = 0 - 15 /
    5246:	8c 81       	ldd	r24, Y+4	; 0x04
    5248:	6d 81       	ldd	r22, Y+5	; 0x05
    524a:	0e 94 34 25 	call	0x4a68	; 0x4a68 <lcd_xy>
    524e:	33 c0       	rjmp	.+102    	; 0x52b6 <lcd_string+0x8c>

	while(*string != '\0')
	{ 
		character1 = *string;
    5250:	ee 81       	ldd	r30, Y+6	; 0x06
    5252:	ff 81       	ldd	r31, Y+7	; 0x07
    5254:	80 81       	ld	r24, Z
    5256:	8b 83       	std	Y+3, r24	; 0x03
		string++;
    5258:	8e 81       	ldd	r24, Y+6	; 0x06
    525a:	9f 81       	ldd	r25, Y+7	; 0x07
    525c:	01 96       	adiw	r24, 0x01	; 1
    525e:	9f 83       	std	Y+7, r25	; 0x07
    5260:	8e 83       	std	Y+6, r24	; 0x06
		if(((character1 >> 7) & 0x01) == 0)
    5262:	8b 81       	ldd	r24, Y+3	; 0x03
    5264:	88 23       	and	r24, r24
    5266:	24 f0       	brlt	.+8      	; 0x5270 <lcd_string+0x46>
			lcd_English(character1);			//* display English character /
    5268:	8b 81       	ldd	r24, Y+3	; 0x03
    526a:	0e 94 98 25 	call	0x4b30	; 0x4b30 <lcd_English>
    526e:	23 c0       	rjmp	.+70     	; 0x52b6 <lcd_string+0x8c>
		else
		{
			character2 = *string;
    5270:	ee 81       	ldd	r30, Y+6	; 0x06
    5272:	ff 81       	ldd	r31, Y+7	; 0x07
    5274:	80 81       	ld	r24, Z
    5276:	88 2f       	mov	r24, r24
    5278:	90 e0       	ldi	r25, 0x00	; 0
    527a:	9a 83       	std	Y+2, r25	; 0x02
    527c:	89 83       	std	Y+1, r24	; 0x01
			character2 = 256*character1 + (character2 & 0xFF);
    527e:	8b 81       	ldd	r24, Y+3	; 0x03
    5280:	88 2f       	mov	r24, r24
    5282:	90 e0       	ldi	r25, 0x00	; 0
    5284:	98 2f       	mov	r25, r24
    5286:	88 27       	eor	r24, r24
    5288:	9c 01       	movw	r18, r24
    528a:	89 81       	ldd	r24, Y+1	; 0x01
    528c:	9a 81       	ldd	r25, Y+2	; 0x02
    528e:	90 70       	andi	r25, 0x00	; 0
    5290:	82 0f       	add	r24, r18
    5292:	93 1f       	adc	r25, r19
    5294:	9a 83       	std	Y+2, r25	; 0x02
    5296:	89 83       	std	Y+1, r24	; 0x01
			string++;
    5298:	8e 81       	ldd	r24, Y+6	; 0x06
    529a:	9f 81       	ldd	r25, Y+7	; 0x07
    529c:	01 96       	adiw	r24, 0x01	; 1
    529e:	9f 83       	std	Y+7, r25	; 0x07
    52a0:	8e 83       	std	Y+6, r24	; 0x06
			character2 = kssm_convert(character2);//  
    52a2:	89 81       	ldd	r24, Y+1	; 0x01
    52a4:	9a 81       	ldd	r25, Y+2	; 0x02
    52a6:	0e 94 9c 28 	call	0x5138	; 0x5138 <kssm_convert>
    52aa:	9a 83       	std	Y+2, r25	; 0x02
    52ac:	89 83       	std	Y+1, r24	; 0x01
			lcd_Korean(character2);			//* display Korean character /
    52ae:	89 81       	ldd	r24, Y+1	; 0x01
    52b0:	9a 81       	ldd	r25, Y+2	; 0x02
    52b2:	0e 94 5d 26 	call	0x4cba	; 0x4cba <lcd_Korean>
{ byte character1;
  word character2;

  lcd_xy(x,y);						//* x = 0 - 3, y = 0 - 15 /

	while(*string != '\0')
    52b6:	ee 81       	ldd	r30, Y+6	; 0x06
    52b8:	ff 81       	ldd	r31, Y+7	; 0x07
    52ba:	80 81       	ld	r24, Z
    52bc:	88 23       	and	r24, r24
    52be:	41 f6       	brne	.-112    	; 0x5250 <lcd_string+0x26>
			string++;
			character2 = kssm_convert(character2);//  
			lcd_Korean(character2);			//* display Korean character /
		}
	}
}
    52c0:	27 96       	adiw	r28, 0x07	; 7
    52c2:	0f b6       	in	r0, 0x3f	; 63
    52c4:	f8 94       	cli
    52c6:	de bf       	out	0x3e, r29	; 62
    52c8:	0f be       	out	0x3f, r0	; 63
    52ca:	cd bf       	out	0x3d, r28	; 61
    52cc:	cf 91       	pop	r28
    52ce:	df 91       	pop	r29
    52d0:	08 95       	ret

000052d2 <port_init>:


//ICC-AVR application builder : 2006-06-13  10:18:26

void port_init(void)
{
    52d2:	df 93       	push	r29
    52d4:	cf 93       	push	r28
    52d6:	cd b7       	in	r28, 0x3d	; 61
    52d8:	de b7       	in	r29, 0x3e	; 62
 PORTA = 0x00;
    52da:	eb e3       	ldi	r30, 0x3B	; 59
    52dc:	f0 e0       	ldi	r31, 0x00	; 0
    52de:	10 82       	st	Z, r1
 DDRA  = 0xFF;
    52e0:	ea e3       	ldi	r30, 0x3A	; 58
    52e2:	f0 e0       	ldi	r31, 0x00	; 0
    52e4:	8f ef       	ldi	r24, 0xFF	; 255
    52e6:	80 83       	st	Z, r24
 PORTB = 0x00;
    52e8:	e8 e3       	ldi	r30, 0x38	; 56
    52ea:	f0 e0       	ldi	r31, 0x00	; 0
    52ec:	10 82       	st	Z, r1
 DDRB  = 0x00;
    52ee:	e7 e3       	ldi	r30, 0x37	; 55
    52f0:	f0 e0       	ldi	r31, 0x00	; 0
    52f2:	10 82       	st	Z, r1
 PORTC = 0x00; //m103 output only
    52f4:	e5 e3       	ldi	r30, 0x35	; 53
    52f6:	f0 e0       	ldi	r31, 0x00	; 0
    52f8:	10 82       	st	Z, r1
 DDRC  = 0xFF;
    52fa:	e4 e3       	ldi	r30, 0x34	; 52
    52fc:	f0 e0       	ldi	r31, 0x00	; 0
    52fe:	8f ef       	ldi	r24, 0xFF	; 255
    5300:	80 83       	st	Z, r24
 PORTD = 0x00;
    5302:	e2 e3       	ldi	r30, 0x32	; 50
    5304:	f0 e0       	ldi	r31, 0x00	; 0
    5306:	10 82       	st	Z, r1
 DDRD  = 0x00;
    5308:	e1 e3       	ldi	r30, 0x31	; 49
    530a:	f0 e0       	ldi	r31, 0x00	; 0
    530c:	10 82       	st	Z, r1
 PORTE = 0x00;
    530e:	e3 e2       	ldi	r30, 0x23	; 35
    5310:	f0 e0       	ldi	r31, 0x00	; 0
    5312:	10 82       	st	Z, r1
 DDRE  = 0x00;
    5314:	e2 e2       	ldi	r30, 0x22	; 34
    5316:	f0 e0       	ldi	r31, 0x00	; 0
    5318:	10 82       	st	Z, r1
 PORTF = 0x00;
    531a:	e2 e6       	ldi	r30, 0x62	; 98
    531c:	f0 e0       	ldi	r31, 0x00	; 0
    531e:	10 82       	st	Z, r1
 DDRF  = 0x00;
    5320:	e1 e6       	ldi	r30, 0x61	; 97
    5322:	f0 e0       	ldi	r31, 0x00	; 0
    5324:	10 82       	st	Z, r1
 PORTG = 0x00;
    5326:	e5 e6       	ldi	r30, 0x65	; 101
    5328:	f0 e0       	ldi	r31, 0x00	; 0
    532a:	10 82       	st	Z, r1
 DDRG  = 0x00;
    532c:	e4 e6       	ldi	r30, 0x64	; 100
    532e:	f0 e0       	ldi	r31, 0x00	; 0
    5330:	10 82       	st	Z, r1
}
    5332:	cf 91       	pop	r28
    5334:	df 91       	pop	r29
    5336:	08 95       	ret

00005338 <init_devices>:

//call this routine to initialize all peripherals
void init_devices(void)
{
    5338:	df 93       	push	r29
    533a:	cf 93       	push	r28
    533c:	cd b7       	in	r28, 0x3d	; 61
    533e:	de b7       	in	r29, 0x3e	; 62
 //stop errant interrupts until set up
 XMCRA = 0x00; //external memory
    5340:	ed e6       	ldi	r30, 0x6D	; 109
    5342:	f0 e0       	ldi	r31, 0x00	; 0
    5344:	10 82       	st	Z, r1
 port_init();
    5346:	0e 94 69 29 	call	0x52d2	; 0x52d2 <port_init>
 
 
 MCUCR = 0x00;
    534a:	e5 e5       	ldi	r30, 0x55	; 85
    534c:	f0 e0       	ldi	r31, 0x00	; 0
    534e:	10 82       	st	Z, r1
 EICRA = 0x00; //extended ext ints
    5350:	ea e6       	ldi	r30, 0x6A	; 106
    5352:	f0 e0       	ldi	r31, 0x00	; 0
    5354:	10 82       	st	Z, r1
 EICRB = 0x00; //extended ext ints
    5356:	ea e5       	ldi	r30, 0x5A	; 90
    5358:	f0 e0       	ldi	r31, 0x00	; 0
    535a:	10 82       	st	Z, r1
 EIMSK = 0x00;
    535c:	e9 e5       	ldi	r30, 0x59	; 89
    535e:	f0 e0       	ldi	r31, 0x00	; 0
    5360:	10 82       	st	Z, r1
 TIMSK = 0x00; //timer interrupt sources
    5362:	e7 e5       	ldi	r30, 0x57	; 87
    5364:	f0 e0       	ldi	r31, 0x00	; 0
    5366:	10 82       	st	Z, r1
 ETIMSK = 0x00; //extended timer interrupt sources
    5368:	ed e7       	ldi	r30, 0x7D	; 125
    536a:	f0 e0       	ldi	r31, 0x00	; 0
    536c:	10 82       	st	Z, r1

}
    536e:	cf 91       	pop	r28
    5370:	df 91       	pop	r29
    5372:	08 95       	ret

00005374 <main>:

//
int main(void)
{
    5374:	df 93       	push	r29
    5376:	cf 93       	push	r28
    5378:	0f 92       	push	r0
    537a:	cd b7       	in	r28, 0x3d	; 61
    537c:	de b7       	in	r29, 0x3e	; 62
 unsigned char i;
 init_devices();
    537e:	0e 94 9c 29 	call	0x5338	; 0x5338 <init_devices>
 //insert your functional code here...
 
  //for(i=0;i<100;i++)
  //delay(60000);
  lcd_init();				/* initialize GLCD */
    5382:	0e 94 1d 25 	call	0x4a3a	; 0x4a3a <lcd_init>
  lcd_clear();
    5386:	0e 94 e2 24 	call	0x49c4	; 0x49c4 <lcd_clear>
  //lcd_string(0,0,"!!");	
  //write_data(CS_ALL,0xff);
  
  while(1)  
    { 	  
	  lcd_string(0,0,"  (NEWTC) ");	
    538a:	23 e9       	ldi	r18, 0x93	; 147
    538c:	31 e0       	ldi	r19, 0x01	; 1
    538e:	80 e0       	ldi	r24, 0x00	; 0
    5390:	60 e0       	ldi	r22, 0x00	; 0
    5392:	a9 01       	movw	r20, r18
    5394:	0e 94 15 29 	call	0x522a	; 0x522a <lcd_string>
	  lcd_string(1,0," www.newtc.co.kr");
    5398:	24 ea       	ldi	r18, 0xA4	; 164
    539a:	31 e0       	ldi	r19, 0x01	; 1
    539c:	81 e0       	ldi	r24, 0x01	; 1
    539e:	60 e0       	ldi	r22, 0x00	; 0
    53a0:	a9 01       	movw	r20, r18
    53a2:	0e 94 15 29 	call	0x522a	; 0x522a <lcd_string>
      lcd_string(2,0," English !@#");
    53a6:	25 eb       	ldi	r18, 0xB5	; 181
    53a8:	31 e0       	ldi	r19, 0x01	; 1
    53aa:	82 e0       	ldi	r24, 0x02	; 2
    53ac:	60 e0       	ldi	r22, 0x00	; 0
    53ae:	a9 01       	movw	r20, r18
    53b0:	0e 94 15 29 	call	0x522a	; 0x522a <lcd_string>
      lcd_string(3,0,"UG-13B04-SEAT5-E");
    53b4:	26 ec       	ldi	r18, 0xC6	; 198
    53b6:	31 e0       	ldi	r19, 0x01	; 1
    53b8:	83 e0       	ldi	r24, 0x03	; 3
    53ba:	60 e0       	ldi	r22, 0x00	; 0
    53bc:	a9 01       	movw	r20, r18
    53be:	0e 94 15 29 	call	0x522a	; 0x522a <lcd_string>
	  delay_ms(1200);
    53c2:	80 eb       	ldi	r24, 0xB0	; 176
    53c4:	94 e0       	ldi	r25, 0x04	; 4
    53c6:	0e 94 5a 24 	call	0x48b4	; 0x48b4 <delay_ms>
	  
      lcd_string(0,0,"GLCD128X64  V1.0");	
    53ca:	27 ed       	ldi	r18, 0xD7	; 215
    53cc:	31 e0       	ldi	r19, 0x01	; 1
    53ce:	80 e0       	ldi	r24, 0x00	; 0
    53d0:	60 e0       	ldi	r22, 0x00	; 0
    53d2:	a9 01       	movw	r20, r18
    53d4:	0e 94 15 29 	call	0x522a	; 0x522a <lcd_string>
      lcd_string(1,0,"128x64 LCD");
    53d8:	28 ee       	ldi	r18, 0xE8	; 232
    53da:	31 e0       	ldi	r19, 0x01	; 1
    53dc:	81 e0       	ldi	r24, 0x01	; 1
    53de:	60 e0       	ldi	r22, 0x00	; 0
    53e0:	a9 01       	movw	r20, r18
    53e2:	0e 94 15 29 	call	0x522a	; 0x522a <lcd_string>
      lcd_string(2,0," 8x16 ASCII ");
    53e6:	29 ef       	ldi	r18, 0xF9	; 249
    53e8:	31 e0       	ldi	r19, 0x01	; 1
    53ea:	82 e0       	ldi	r24, 0x02	; 2
    53ec:	60 e0       	ldi	r22, 0x00	; 0
    53ee:	a9 01       	movw	r20, r18
    53f0:	0e 94 15 29 	call	0x522a	; 0x522a <lcd_string>
      lcd_string(3,0,"16x16");
    53f4:	2a e0       	ldi	r18, 0x0A	; 10
    53f6:	32 e0       	ldi	r19, 0x02	; 2
    53f8:	83 e0       	ldi	r24, 0x03	; 3
    53fa:	60 e0       	ldi	r22, 0x00	; 0
    53fc:	a9 01       	movw	r20, r18
    53fe:	0e 94 15 29 	call	0x522a	; 0x522a <lcd_string>
	  delay_ms(1200);
    5402:	80 eb       	ldi	r24, 0xB0	; 176
    5404:	94 e0       	ldi	r25, 0x04	; 4
    5406:	0e 94 5a 24 	call	0x48b4	; 0x48b4 <delay_ms>
    540a:	bf cf       	rjmp	.-130    	; 0x538a <main+0x16>

0000540c <_exit>:
    540c:	f8 94       	cli

0000540e <__stop_program>:
    540e:	ff cf       	rjmp	.-2      	; 0x540e <__stop_program>
