   1              		.syntax unified
   2              		.cpu cortex-m3
   3              		.fpu softvfp
   4              		.eabi_attribute 20, 1
   5              		.eabi_attribute 21, 1
   6              		.eabi_attribute 23, 3
   7              		.eabi_attribute 24, 1
   8              		.eabi_attribute 25, 1
   9              		.eabi_attribute 26, 1
  10              		.eabi_attribute 30, 4
  11              		.eabi_attribute 18, 4
  12              		.thumb
  13              		.file	"stm32f10x_it.c"
  21              	.Ltext0:
  22              		.align	2
  23              		.global	NMIException
  24              		.thumb
  25              		.thumb_func
  27              	NMIException:
  28              	.LFB0:
  29              		.file 1 "stm32f10x_it.c"
   1:stm32f10x_it.c **** /******************** (C) COPYRIGHT 2008 STMicroelectronics ********************
   2:stm32f10x_it.c **** * File Name          : stm32f10x_it.c
   3:stm32f10x_it.c **** * Author             : IMS Systems Lab
   4:stm32f10x_it.c **** * Date First Issued  : 21/11/07
   5:stm32f10x_it.c **** * Description        : Main Interrupt Service Routines.
   6:stm32f10x_it.c **** *                      This file provides template for all exceptions handler
   7:stm32f10x_it.c **** *                      and peripherals interrupt service routine.
   8:stm32f10x_it.c **** ********************************************************************************
   9:stm32f10x_it.c **** * History:
  10:stm32f10x_it.c **** * 21/11/07 v1.0
  11:stm32f10x_it.c **** * 05/29/08 v2.0
  12:stm32f10x_it.c **** * 07/02/08 v2.0.1
  13:stm32f10x_it.c **** ********************************************************************************
  14:stm32f10x_it.c **** * THE PRESENT SOFTWARE WHICH IS FOR GUIDANCE ONLY AIMS AT PROVIDING CUSTOMERS
  15:stm32f10x_it.c **** * WITH CODING INFORMATION REGARDING THEIR PRODUCTS IN ORDER FOR THEM TO SAVE TIME.
  16:stm32f10x_it.c **** * AS A RESULT, STMICROELECTRONICS SHALL NOT BE HELD LIABLE FOR ANY DIRECT,
  17:stm32f10x_it.c **** * INDIRECT OR CONSEQUENTIAL DAMAGES WITH RESPECT TO ANY CLAIMS ARISING FROM THE
  18:stm32f10x_it.c **** * CONTENT OF SUCH SOFTWARE AND/OR THE USE MADE BY CUSTOMERS OF THE CODING
  19:stm32f10x_it.c **** * INFORMATION CONTAINED HEREIN IN CONNECTION WITH THEIR PRODUCTS.
  20:stm32f10x_it.c **** * FOR MORE INFORMATION PLEASE CAREFULLY READ THE LICENSE AGREEMENT FILE LOCATED
  21:stm32f10x_it.c **** * IN THE ROOT DIRECTORY OF THIS FIRMWARE PACKAGE.
  22:stm32f10x_it.c **** *
  23:stm32f10x_it.c **** * THIS SOURCE CODE IS PROTECTED BY A LICENSE.
  24:stm32f10x_it.c **** * FOR MORE INFORMATION PLEASE CAREFULLY READ THE LICENSE AGREEMENT FILE LOCATED
  25:stm32f10x_it.c **** * IN THE ROOT DIRECTORY OF THIS FIRMWARE PACKAGE.
  26:stm32f10x_it.c **** *******************************************************************************/
  27:stm32f10x_it.c **** 
  28:stm32f10x_it.c **** /* Includes ------------------------------------------------------------------*/
  29:stm32f10x_it.c **** #include "stm32f10x_it.h"
  30:stm32f10x_it.c **** 
  31:stm32f10x_it.c **** 
  32:stm32f10x_it.c **** /* Private typedef -----------------------------------------------------------*/
  33:stm32f10x_it.c **** /* Private define ------------------------------------------------------------*/
  34:stm32f10x_it.c **** 
  35:stm32f10x_it.c **** /* Private macro -------------------------------------------------------------*/
  36:stm32f10x_it.c **** /* Private variables ---------------------------------------------------------*/
  37:stm32f10x_it.c **** /* Private function prototypes -----------------------------------------------*/
  38:stm32f10x_it.c **** 
  39:stm32f10x_it.c **** extern void USB_Istr(void);
  40:stm32f10x_it.c **** 
  41:stm32f10x_it.c **** /* Private functions ---------------------------------------------------------*/
  42:stm32f10x_it.c **** 
  43:stm32f10x_it.c **** /*******************************************************************************
  44:stm32f10x_it.c **** * Function Name  : NMIException
  45:stm32f10x_it.c **** * Description    : This function handles NMI exception.
  46:stm32f10x_it.c **** * Input          : None
  47:stm32f10x_it.c **** * Output         : None
  48:stm32f10x_it.c **** * Return         : None
  49:stm32f10x_it.c **** *******************************************************************************/
  50:stm32f10x_it.c **** void NMIException(void)
  51:stm32f10x_it.c **** {
  30              		.loc 1 51 0
  31              		@ args = 0, pretend = 0, frame = 0
  32              		@ frame_needed = 0, uses_anonymous_args = 0
  33              		@ link register save eliminated.
  52:stm32f10x_it.c **** }
  34              		.loc 1 52 0
  35 0000 7047     		bx	lr
  36              	.LFE0:
  38 0002 00BF     		.align	2
  39              		.global	HardFaultException
  40              		.thumb
  41              		.thumb_func
  43              	HardFaultException:
  44              	.LFB1:
  53:stm32f10x_it.c **** 
  54:stm32f10x_it.c **** /*******************************************************************************
  55:stm32f10x_it.c **** * Function Name  : HardFaultException
  56:stm32f10x_it.c **** * Description    : This function handles Hard Fault exception.
  57:stm32f10x_it.c **** * Input          : None
  58:stm32f10x_it.c **** * Output         : None
  59:stm32f10x_it.c **** * Return         : None
  60:stm32f10x_it.c **** *******************************************************************************/
  61:stm32f10x_it.c **** void HardFaultException(void)
  62:stm32f10x_it.c **** {
  45              		.loc 1 62 0
  46              		@ args = 0, pretend = 0, frame = 0
  47              		@ frame_needed = 0, uses_anonymous_args = 0
  48              		@ link register save eliminated.
  49              	.L4:
  50 0004 FEE7     		b	.L4
  51              	.LFE1:
  53 0006 00BF     		.align	2
  54              		.global	MemManageException
  55              		.thumb
  56              		.thumb_func
  58              	MemManageException:
  59              	.LFB2:
  63:stm32f10x_it.c ****   /* Go to infinite loop when Hard Fault exception occurs */
  64:stm32f10x_it.c ****   while (1)
  65:stm32f10x_it.c ****   {
  66:stm32f10x_it.c ****   }
  67:stm32f10x_it.c **** }
  68:stm32f10x_it.c **** 
  69:stm32f10x_it.c **** /*******************************************************************************
  70:stm32f10x_it.c **** * Function Name  : MemManageException
  71:stm32f10x_it.c **** * Description    : This function handles Memory Manage exception.
  72:stm32f10x_it.c **** * Input          : None
  73:stm32f10x_it.c **** * Output         : None
  74:stm32f10x_it.c **** * Return         : None
  75:stm32f10x_it.c **** *******************************************************************************/
  76:stm32f10x_it.c **** void MemManageException(void)
  77:stm32f10x_it.c **** {
  60              		.loc 1 77 0
  61              		@ args = 0, pretend = 0, frame = 0
  62              		@ frame_needed = 0, uses_anonymous_args = 0
  63              		@ link register save eliminated.
  64              	.L7:
  65 0008 FEE7     		b	.L7
  66              	.LFE2:
  68 000a 00BF     		.align	2
  69              		.global	BusFaultException
  70              		.thumb
  71              		.thumb_func
  73              	BusFaultException:
  74              	.LFB3:
  78:stm32f10x_it.c ****   /* Go to infinite loop when Memory Manage exception occurs */
  79:stm32f10x_it.c ****   while (1)
  80:stm32f10x_it.c ****   {
  81:stm32f10x_it.c ****   }
  82:stm32f10x_it.c **** }
  83:stm32f10x_it.c **** 
  84:stm32f10x_it.c **** /*******************************************************************************
  85:stm32f10x_it.c **** * Function Name  : BusFaultException
  86:stm32f10x_it.c **** * Description    : This function handles Bus Fault exception.
  87:stm32f10x_it.c **** * Input          : None
  88:stm32f10x_it.c **** * Output         : None
  89:stm32f10x_it.c **** * Return         : None
  90:stm32f10x_it.c **** *******************************************************************************/
  91:stm32f10x_it.c **** void BusFaultException(void)
  92:stm32f10x_it.c **** {
  75              		.loc 1 92 0
  76              		@ args = 0, pretend = 0, frame = 0
  77              		@ frame_needed = 0, uses_anonymous_args = 0
  78              		@ link register save eliminated.
  79              	.L10:
  80 000c FEE7     		b	.L10
  81              	.LFE3:
  83 000e 00BF     		.align	2
  84              		.global	UsageFaultException
  85              		.thumb
  86              		.thumb_func
  88              	UsageFaultException:
  89              	.LFB4:
  93:stm32f10x_it.c ****   /* Go to infinite loop when Bus Fault exception occurs */
  94:stm32f10x_it.c ****   while (1)
  95:stm32f10x_it.c ****   {
  96:stm32f10x_it.c ****   }
  97:stm32f10x_it.c **** }
  98:stm32f10x_it.c **** 
  99:stm32f10x_it.c **** /*******************************************************************************
 100:stm32f10x_it.c **** * Function Name  : UsageFaultException
 101:stm32f10x_it.c **** * Description    : This function handles Usage Fault exception.
 102:stm32f10x_it.c **** * Input          : None
 103:stm32f10x_it.c **** * Output         : None
 104:stm32f10x_it.c **** * Return         : None
 105:stm32f10x_it.c **** *******************************************************************************/
 106:stm32f10x_it.c **** void UsageFaultException(void)
 107:stm32f10x_it.c **** {
  90              		.loc 1 107 0
  91              		@ args = 0, pretend = 0, frame = 0
  92              		@ frame_needed = 0, uses_anonymous_args = 0
  93              		@ link register save eliminated.
  94              	.L13:
  95 0010 FEE7     		b	.L13
  96              	.LFE4:
  98 0012 00BF     		.align	2
  99              		.global	DebugMonitor
 100              		.thumb
 101              		.thumb_func
 103              	DebugMonitor:
 104              	.LFB5:
 108:stm32f10x_it.c ****   /* Go to infinite loop when Usage Fault exception occurs */
 109:stm32f10x_it.c ****   while (1)
 110:stm32f10x_it.c ****   {
 111:stm32f10x_it.c ****   }
 112:stm32f10x_it.c **** }
 113:stm32f10x_it.c **** 
 114:stm32f10x_it.c **** /*******************************************************************************
 115:stm32f10x_it.c **** * Function Name  : DebugMonitor
 116:stm32f10x_it.c **** * Description    : This function handles Debug Monitor exception.
 117:stm32f10x_it.c **** * Input          : None
 118:stm32f10x_it.c **** * Output         : None
 119:stm32f10x_it.c **** * Return         : None
 120:stm32f10x_it.c **** *******************************************************************************/
 121:stm32f10x_it.c **** void DebugMonitor(void)
 122:stm32f10x_it.c **** {
 105              		.loc 1 122 0
 106              		@ args = 0, pretend = 0, frame = 0
 107              		@ frame_needed = 0, uses_anonymous_args = 0
 108              		@ link register save eliminated.
 123:stm32f10x_it.c **** }
 109              		.loc 1 123 0
 110 0014 7047     		bx	lr
 111              	.LFE5:
 113 0016 00BF     		.align	2
 114              		.global	SVCHandler
 115              		.thumb
 116              		.thumb_func
 118              	SVCHandler:
 119              	.LFB6:
 124:stm32f10x_it.c **** 
 125:stm32f10x_it.c **** /*******************************************************************************
 126:stm32f10x_it.c **** * Function Name  : SVCHandler
 127:stm32f10x_it.c **** * Description    : This function handles SVCall exception.
 128:stm32f10x_it.c **** * Input          : None
 129:stm32f10x_it.c **** * Output         : None
 130:stm32f10x_it.c **** * Return         : None
 131:stm32f10x_it.c **** *******************************************************************************/
 132:stm32f10x_it.c **** void SVCHandler(void)
 133:stm32f10x_it.c **** {
 120              		.loc 1 133 0
 121              		@ args = 0, pretend = 0, frame = 0
 122              		@ frame_needed = 0, uses_anonymous_args = 0
 123              		@ link register save eliminated.
 134:stm32f10x_it.c **** }
 124              		.loc 1 134 0
 125 0018 7047     		bx	lr
 126              	.LFE6:
 128 001a 00BF     		.align	2
 129              		.global	PendSVC
 130              		.thumb
 131              		.thumb_func
 133              	PendSVC:
 134              	.LFB7:
 135:stm32f10x_it.c **** 
 136:stm32f10x_it.c **** /*******************************************************************************
 137:stm32f10x_it.c **** * Function Name  : PendSVC
 138:stm32f10x_it.c **** * Description    : This function handles PendSVC exception.
 139:stm32f10x_it.c **** * Input          : None
 140:stm32f10x_it.c **** * Output         : None
 141:stm32f10x_it.c **** * Return         : None
 142:stm32f10x_it.c **** *******************************************************************************/
 143:stm32f10x_it.c **** void PendSVC(void)
 144:stm32f10x_it.c **** {
 135              		.loc 1 144 0
 136              		@ args = 0, pretend = 0, frame = 0
 137              		@ frame_needed = 0, uses_anonymous_args = 0
 138              		@ link register save eliminated.
 145:stm32f10x_it.c **** }
 139              		.loc 1 145 0
 140 001c 7047     		bx	lr
 141              	.LFE7:
 143 001e 00BF     		.align	2
 144              		.weak	WWDG_IRQHandler
 145              		.thumb
 146              		.thumb_func
 148              	WWDG_IRQHandler:
 149              	.LFB8:
 146:stm32f10x_it.c **** 
 147:stm32f10x_it.c **** /*******************************************************************************
 148:stm32f10x_it.c **** * Function Name  : WWDG_IRQHandler
 149:stm32f10x_it.c **** * Description    : This function handles WWDG interrupt request.
 150:stm32f10x_it.c **** * Input          : None
 151:stm32f10x_it.c **** * Output         : None
 152:stm32f10x_it.c **** * Return         : None
 153:stm32f10x_it.c **** *******************************************************************************/
 154:stm32f10x_it.c **** void  __attribute__ ((weak)) WWDG_IRQHandler(void)
 155:stm32f10x_it.c **** {
 150              		.loc 1 155 0
 151              		@ args = 0, pretend = 0, frame = 0
 152              		@ frame_needed = 0, uses_anonymous_args = 0
 153              		@ link register save eliminated.
 156:stm32f10x_it.c **** }
 154              		.loc 1 156 0
 155 0020 7047     		bx	lr
 156              	.LFE8:
 158 0022 00BF     		.align	2
 159              		.weak	PVD_IRQHandler
 160              		.thumb
 161              		.thumb_func
 163              	PVD_IRQHandler:
 164              	.LFB9:
 157:stm32f10x_it.c **** 
 158:stm32f10x_it.c **** /*******************************************************************************
 159:stm32f10x_it.c **** * Function Name  : PVD_IRQHandler
 160:stm32f10x_it.c **** * Description    : This function handles PVD interrupt request.
 161:stm32f10x_it.c **** * Input          : None
 162:stm32f10x_it.c **** * Output         : None
 163:stm32f10x_it.c **** * Return         : None
 164:stm32f10x_it.c **** *******************************************************************************/
 165:stm32f10x_it.c **** void  __attribute__ ((weak)) PVD_IRQHandler(void)
 166:stm32f10x_it.c **** {
 165              		.loc 1 166 0
 166              		@ args = 0, pretend = 0, frame = 0
 167              		@ frame_needed = 0, uses_anonymous_args = 0
 168              		@ link register save eliminated.
 167:stm32f10x_it.c **** }
 169              		.loc 1 167 0
 170 0024 7047     		bx	lr
 171              	.LFE9:
 173 0026 00BF     		.align	2
 174              		.weak	TAMPER_IRQHandler
 175              		.thumb
 176              		.thumb_func
 178              	TAMPER_IRQHandler:
 179              	.LFB10:
 168:stm32f10x_it.c **** 
 169:stm32f10x_it.c **** /*******************************************************************************
 170:stm32f10x_it.c **** * Function Name  : TAMPER_IRQHandler
 171:stm32f10x_it.c **** * Description    : This function handles Tamper interrupt request.
 172:stm32f10x_it.c **** * Input          : None
 173:stm32f10x_it.c **** * Output         : None
 174:stm32f10x_it.c **** * Return         : None
 175:stm32f10x_it.c **** *******************************************************************************/
 176:stm32f10x_it.c **** void  __attribute__ ((weak)) TAMPER_IRQHandler(void)
 177:stm32f10x_it.c **** {
 180              		.loc 1 177 0
 181              		@ args = 0, pretend = 0, frame = 0
 182              		@ frame_needed = 0, uses_anonymous_args = 0
 183              		@ link register save eliminated.
 178:stm32f10x_it.c **** }
 184              		.loc 1 178 0
 185 0028 7047     		bx	lr
 186              	.LFE10:
 188 002a 00BF     		.align	2
 189              		.weak	RTC_IRQHandler
 190              		.thumb
 191              		.thumb_func
 193              	RTC_IRQHandler:
 194              	.LFB11:
 179:stm32f10x_it.c **** 
 180:stm32f10x_it.c **** /*******************************************************************************
 181:stm32f10x_it.c **** * Function Name  : RTC_IRQHandler
 182:stm32f10x_it.c **** * Description    : This function handles RTC global interrupt request.
 183:stm32f10x_it.c **** * Input          : None
 184:stm32f10x_it.c **** * Output         : None
 185:stm32f10x_it.c **** * Return         : None
 186:stm32f10x_it.c **** *******************************************************************************/
 187:stm32f10x_it.c **** void  __attribute__ ((weak)) RTC_IRQHandler(void)
 188:stm32f10x_it.c **** {
 195              		.loc 1 188 0
 196              		@ args = 0, pretend = 0, frame = 0
 197              		@ frame_needed = 0, uses_anonymous_args = 0
 198              		@ link register save eliminated.
 189:stm32f10x_it.c **** }
 199              		.loc 1 189 0
 200 002c 7047     		bx	lr
 201              	.LFE11:
 203 002e 00BF     		.align	2
 204              		.weak	FLASH_IRQHandler
 205              		.thumb
 206              		.thumb_func
 208              	FLASH_IRQHandler:
 209              	.LFB12:
 190:stm32f10x_it.c **** 
 191:stm32f10x_it.c **** /*******************************************************************************
 192:stm32f10x_it.c **** * Function Name  : FLASH_IRQHandler
 193:stm32f10x_it.c **** * Description    : This function handles Flash interrupt request.
 194:stm32f10x_it.c **** * Input          : None
 195:stm32f10x_it.c **** * Output         : None
 196:stm32f10x_it.c **** * Return         : None
 197:stm32f10x_it.c **** *******************************************************************************/
 198:stm32f10x_it.c **** void  __attribute__ ((weak)) FLASH_IRQHandler(void)
 199:stm32f10x_it.c **** {
 210              		.loc 1 199 0
 211              		@ args = 0, pretend = 0, frame = 0
 212              		@ frame_needed = 0, uses_anonymous_args = 0
 213              		@ link register save eliminated.
 200:stm32f10x_it.c **** }
 214              		.loc 1 200 0
 215 0030 7047     		bx	lr
 216              	.LFE12:
 218 0032 00BF     		.align	2
 219              		.weak	RCC_IRQHandler
 220              		.thumb
 221              		.thumb_func
 223              	RCC_IRQHandler:
 224              	.LFB13:
 201:stm32f10x_it.c **** 
 202:stm32f10x_it.c **** /*******************************************************************************
 203:stm32f10x_it.c **** * Function Name  : RCC_IRQHandler
 204:stm32f10x_it.c **** * Description    : This function handles RCC interrupt request.
 205:stm32f10x_it.c **** * Input          : None
 206:stm32f10x_it.c **** * Output         : None
 207:stm32f10x_it.c **** * Return         : None
 208:stm32f10x_it.c **** *******************************************************************************/
 209:stm32f10x_it.c **** void  __attribute__ ((weak)) RCC_IRQHandler(void)
 210:stm32f10x_it.c **** {
 225              		.loc 1 210 0
 226              		@ args = 0, pretend = 0, frame = 0
 227              		@ frame_needed = 0, uses_anonymous_args = 0
 228              		@ link register save eliminated.
 211:stm32f10x_it.c **** }
 229              		.loc 1 211 0
 230 0034 7047     		bx	lr
 231              	.LFE13:
 233 0036 00BF     		.align	2
 234              		.weak	EXTI0_IRQHandler
 235              		.thumb
 236              		.thumb_func
 238              	EXTI0_IRQHandler:
 239              	.LFB14:
 212:stm32f10x_it.c **** 
 213:stm32f10x_it.c **** /*******************************************************************************
 214:stm32f10x_it.c **** * Function Name  : EXTI0_IRQHandler
 215:stm32f10x_it.c **** * Description    : This function handles External interrupt Line 0 request.
 216:stm32f10x_it.c **** * Input          : None
 217:stm32f10x_it.c **** * Output         : None
 218:stm32f10x_it.c **** * Return         : None
 219:stm32f10x_it.c **** *******************************************************************************/
 220:stm32f10x_it.c **** void  __attribute__ ((weak)) EXTI0_IRQHandler(void)
 221:stm32f10x_it.c **** {
 240              		.loc 1 221 0
 241              		@ args = 0, pretend = 0, frame = 0
 242              		@ frame_needed = 0, uses_anonymous_args = 0
 243              		@ link register save eliminated.
 222:stm32f10x_it.c **** }
 244              		.loc 1 222 0
 245 0038 7047     		bx	lr
 246              	.LFE14:
 248 003a 00BF     		.align	2
 249              		.weak	EXTI1_IRQHandler
 250              		.thumb
 251              		.thumb_func
 253              	EXTI1_IRQHandler:
 254              	.LFB15:
 223:stm32f10x_it.c **** 
 224:stm32f10x_it.c **** /*******************************************************************************
 225:stm32f10x_it.c **** * Function Name  : EXTI1_IRQHandler
 226:stm32f10x_it.c **** * Description    : This function handles External interrupt Line 1 request.
 227:stm32f10x_it.c **** * Input          : None
 228:stm32f10x_it.c **** * Output         : None
 229:stm32f10x_it.c **** * Return         : None
 230:stm32f10x_it.c **** *******************************************************************************/
 231:stm32f10x_it.c **** void  __attribute__ ((weak)) EXTI1_IRQHandler(void)
 232:stm32f10x_it.c **** {
 255              		.loc 1 232 0
 256              		@ args = 0, pretend = 0, frame = 0
 257              		@ frame_needed = 0, uses_anonymous_args = 0
 258              		@ link register save eliminated.
 233:stm32f10x_it.c **** }
 259              		.loc 1 233 0
 260 003c 7047     		bx	lr
 261              	.LFE15:
 263 003e 00BF     		.align	2
 264              		.weak	EXTI2_IRQHandler
 265              		.thumb
 266              		.thumb_func
 268              	EXTI2_IRQHandler:
 269              	.LFB16:
 234:stm32f10x_it.c **** 
 235:stm32f10x_it.c **** /*******************************************************************************
 236:stm32f10x_it.c **** * Function Name  : EXTI2_IRQHandler
 237:stm32f10x_it.c **** * Description    : This function handles External interrupt Line 2 request.
 238:stm32f10x_it.c **** * Input          : None
 239:stm32f10x_it.c **** * Output         : None
 240:stm32f10x_it.c **** * Return         : None
 241:stm32f10x_it.c **** *******************************************************************************/
 242:stm32f10x_it.c **** void __attribute__ ((weak)) EXTI2_IRQHandler(void)
 243:stm32f10x_it.c **** {
 270              		.loc 1 243 0
 271              		@ args = 0, pretend = 0, frame = 0
 272              		@ frame_needed = 0, uses_anonymous_args = 0
 273              		@ link register save eliminated.
 244:stm32f10x_it.c **** }
 274              		.loc 1 244 0
 275 0040 7047     		bx	lr
 276              	.LFE16:
 278 0042 00BF     		.align	2
 279              		.weak	EXTI3_IRQHandler
 280              		.thumb
 281              		.thumb_func
 283              	EXTI3_IRQHandler:
 284              	.LFB17:
 245:stm32f10x_it.c **** 
 246:stm32f10x_it.c **** /*******************************************************************************
 247:stm32f10x_it.c **** * Function Name  : EXTI3_IRQHandler
 248:stm32f10x_it.c **** * Description    : This function handles External interrupt Line 3 request.
 249:stm32f10x_it.c **** * Input          : None
 250:stm32f10x_it.c **** * Output         : None
 251:stm32f10x_it.c **** * Return         : None
 252:stm32f10x_it.c **** *******************************************************************************/
 253:stm32f10x_it.c **** void  __attribute__ ((weak)) EXTI3_IRQHandler(void)
 254:stm32f10x_it.c **** {
 285              		.loc 1 254 0
 286              		@ args = 0, pretend = 0, frame = 0
 287              		@ frame_needed = 0, uses_anonymous_args = 0
 288              		@ link register save eliminated.
 255:stm32f10x_it.c **** }
 289              		.loc 1 255 0
 290 0044 7047     		bx	lr
 291              	.LFE17:
 293 0046 00BF     		.align	2
 294              		.weak	EXTI4_IRQHandler
 295              		.thumb
 296              		.thumb_func
 298              	EXTI4_IRQHandler:
 299              	.LFB18:
 256:stm32f10x_it.c **** 
 257:stm32f10x_it.c **** /*******************************************************************************
 258:stm32f10x_it.c **** * Function Name  : EXTI4_IRQHandler
 259:stm32f10x_it.c **** * Description    : This function handles External interrupt Line 4 request.
 260:stm32f10x_it.c **** * Input          : None
 261:stm32f10x_it.c **** * Output         : None
 262:stm32f10x_it.c **** * Return         : None
 263:stm32f10x_it.c **** *******************************************************************************/
 264:stm32f10x_it.c **** void  __attribute__ ((weak)) EXTI4_IRQHandler(void)
 265:stm32f10x_it.c **** {
 300              		.loc 1 265 0
 301              		@ args = 0, pretend = 0, frame = 0
 302              		@ frame_needed = 0, uses_anonymous_args = 0
 303              		@ link register save eliminated.
 266:stm32f10x_it.c **** }
 304              		.loc 1 266 0
 305 0048 7047     		bx	lr
 306              	.LFE18:
 308 004a 00BF     		.align	2
 309              		.weak	DMA1_Channel1_IRQHandler
 310              		.thumb
 311              		.thumb_func
 313              	DMA1_Channel1_IRQHandler:
 314              	.LFB19:
 267:stm32f10x_it.c **** 
 268:stm32f10x_it.c **** /*******************************************************************************
 269:stm32f10x_it.c **** * Function Name  : DMA1_Channel1_IRQHandler
 270:stm32f10x_it.c **** * Description    : This function handles DMA1 Channel 1 interrupt request.
 271:stm32f10x_it.c **** * Input          : None
 272:stm32f10x_it.c **** * Output         : None
 273:stm32f10x_it.c **** * Return         : None
 274:stm32f10x_it.c **** *******************************************************************************/
 275:stm32f10x_it.c **** void  __attribute__ ((weak)) DMA1_Channel1_IRQHandler(void)
 276:stm32f10x_it.c **** {
 315              		.loc 1 276 0
 316              		@ args = 0, pretend = 0, frame = 0
 317              		@ frame_needed = 0, uses_anonymous_args = 0
 318              		@ link register save eliminated.
 277:stm32f10x_it.c **** }
 319              		.loc 1 277 0
 320 004c 7047     		bx	lr
 321              	.LFE19:
 323 004e 00BF     		.align	2
 324              		.weak	DMA1_Channel2_IRQHandler
 325              		.thumb
 326              		.thumb_func
 328              	DMA1_Channel2_IRQHandler:
 329              	.LFB20:
 278:stm32f10x_it.c **** 
 279:stm32f10x_it.c **** /*******************************************************************************
 280:stm32f10x_it.c **** * Function Name  : DMA1_Channel2_IRQHandler
 281:stm32f10x_it.c **** * Description    : This function handles DMA1 Channel 2 interrupt request.
 282:stm32f10x_it.c **** * Input          : None
 283:stm32f10x_it.c **** * Output         : None
 284:stm32f10x_it.c **** * Return         : None
 285:stm32f10x_it.c **** *******************************************************************************/
 286:stm32f10x_it.c **** void  __attribute__ ((weak)) DMA1_Channel2_IRQHandler(void)
 287:stm32f10x_it.c **** {
 330              		.loc 1 287 0
 331              		@ args = 0, pretend = 0, frame = 0
 332              		@ frame_needed = 0, uses_anonymous_args = 0
 333              		@ link register save eliminated.
 288:stm32f10x_it.c **** }
 334              		.loc 1 288 0
 335 0050 7047     		bx	lr
 336              	.LFE20:
 338 0052 00BF     		.align	2
 339              		.weak	DMA1_Channel3_IRQHandler
 340              		.thumb
 341              		.thumb_func
 343              	DMA1_Channel3_IRQHandler:
 344              	.LFB21:
 289:stm32f10x_it.c **** 
 290:stm32f10x_it.c **** /*******************************************************************************
 291:stm32f10x_it.c **** * Function Name  : DMA1_Channel3_IRQHandler
 292:stm32f10x_it.c **** * Description    : This function handles DMA1 Channel 3 interrupt request.
 293:stm32f10x_it.c **** * Input          : None
 294:stm32f10x_it.c **** * Output         : None
 295:stm32f10x_it.c **** * Return         : None
 296:stm32f10x_it.c **** *******************************************************************************/
 297:stm32f10x_it.c **** void  __attribute__ ((weak)) DMA1_Channel3_IRQHandler(void)
 298:stm32f10x_it.c **** {
 345              		.loc 1 298 0
 346              		@ args = 0, pretend = 0, frame = 0
 347              		@ frame_needed = 0, uses_anonymous_args = 0
 348              		@ link register save eliminated.
 299:stm32f10x_it.c **** }
 349              		.loc 1 299 0
 350 0054 7047     		bx	lr
 351              	.LFE21:
 353 0056 00BF     		.align	2
 354              		.weak	DMA1_Channel4_IRQHandler
 355              		.thumb
 356              		.thumb_func
 358              	DMA1_Channel4_IRQHandler:
 359              	.LFB22:
 300:stm32f10x_it.c **** 
 301:stm32f10x_it.c **** /*******************************************************************************
 302:stm32f10x_it.c **** * Function Name  : DMA1_Channel4_IRQHandler
 303:stm32f10x_it.c **** * Description    : This function handles DMA1 Channel 4 interrupt request.
 304:stm32f10x_it.c **** * Input          : None
 305:stm32f10x_it.c **** * Output         : None
 306:stm32f10x_it.c **** * Return         : None
 307:stm32f10x_it.c **** *******************************************************************************/
 308:stm32f10x_it.c **** void  __attribute__ ((weak)) DMA1_Channel4_IRQHandler(void)
 309:stm32f10x_it.c **** {
 360              		.loc 1 309 0
 361              		@ args = 0, pretend = 0, frame = 0
 362              		@ frame_needed = 0, uses_anonymous_args = 0
 363              		@ link register save eliminated.
 310:stm32f10x_it.c **** }
 364              		.loc 1 310 0
 365 0058 7047     		bx	lr
 366              	.LFE22:
 368 005a 00BF     		.align	2
 369              		.weak	DMA1_Channel5_IRQHandler
 370              		.thumb
 371              		.thumb_func
 373              	DMA1_Channel5_IRQHandler:
 374              	.LFB23:
 311:stm32f10x_it.c **** 
 312:stm32f10x_it.c **** /*******************************************************************************
 313:stm32f10x_it.c **** * Function Name  : DMA1_Channel5_IRQHandler
 314:stm32f10x_it.c **** * Description    : This function handles DMA1 Channel 5 interrupt request.
 315:stm32f10x_it.c **** * Input          : None
 316:stm32f10x_it.c **** * Output         : None
 317:stm32f10x_it.c **** * Return         : None
 318:stm32f10x_it.c **** *******************************************************************************/
 319:stm32f10x_it.c **** void  __attribute__ ((weak)) DMA1_Channel5_IRQHandler(void)
 320:stm32f10x_it.c **** {
 375              		.loc 1 320 0
 376              		@ args = 0, pretend = 0, frame = 0
 377              		@ frame_needed = 0, uses_anonymous_args = 0
 378              		@ link register save eliminated.
 321:stm32f10x_it.c **** }
 379              		.loc 1 321 0
 380 005c 7047     		bx	lr
 381              	.LFE23:
 383 005e 00BF     		.align	2
 384              		.weak	DMA1_Channel6_IRQHandler
 385              		.thumb
 386              		.thumb_func
 388              	DMA1_Channel6_IRQHandler:
 389              	.LFB24:
 322:stm32f10x_it.c **** 
 323:stm32f10x_it.c **** /*******************************************************************************
 324:stm32f10x_it.c **** * Function Name  : DMA1_Channel6_IRQHandler
 325:stm32f10x_it.c **** * Description    : This function handles DMA1 Channel 6 interrupt request.
 326:stm32f10x_it.c **** * Input          : None
 327:stm32f10x_it.c **** * Output         : None
 328:stm32f10x_it.c **** * Return         : None
 329:stm32f10x_it.c **** *******************************************************************************/
 330:stm32f10x_it.c **** void  __attribute__ ((weak)) DMA1_Channel6_IRQHandler(void)
 331:stm32f10x_it.c **** {
 390              		.loc 1 331 0
 391              		@ args = 0, pretend = 0, frame = 0
 392              		@ frame_needed = 0, uses_anonymous_args = 0
 393              		@ link register save eliminated.
 332:stm32f10x_it.c **** }
 394              		.loc 1 332 0
 395 0060 7047     		bx	lr
 396              	.LFE24:
 398 0062 00BF     		.align	2
 399              		.weak	DMA1_Channel7_IRQHandler
 400              		.thumb
 401              		.thumb_func
 403              	DMA1_Channel7_IRQHandler:
 404              	.LFB25:
 333:stm32f10x_it.c **** 
 334:stm32f10x_it.c **** /*******************************************************************************
 335:stm32f10x_it.c **** * Function Name  : DMA1_Channel7_IRQHandler
 336:stm32f10x_it.c **** * Description    : This function handles DMA1 Channel 7 interrupt request.
 337:stm32f10x_it.c **** * Input          : None
 338:stm32f10x_it.c **** * Output         : None
 339:stm32f10x_it.c **** * Return         : None
 340:stm32f10x_it.c **** *******************************************************************************/
 341:stm32f10x_it.c **** void  __attribute__ ((weak)) DMA1_Channel7_IRQHandler(void)
 342:stm32f10x_it.c **** {
 405              		.loc 1 342 0
 406              		@ args = 0, pretend = 0, frame = 0
 407              		@ frame_needed = 0, uses_anonymous_args = 0
 408              		@ link register save eliminated.
 343:stm32f10x_it.c **** }
 409              		.loc 1 343 0
 410 0064 7047     		bx	lr
 411              	.LFE25:
 413 0066 00BF     		.align	2
 414              		.weak	ADC_IRQHandler
 415              		.thumb
 416              		.thumb_func
 418              	ADC_IRQHandler:
 419              	.LFB26:
 344:stm32f10x_it.c **** 
 345:stm32f10x_it.c **** /*******************************************************************************
 346:stm32f10x_it.c **** * Function Name  : ADC1_2_IRQHandler
 347:stm32f10x_it.c **** * Description    : This function handles ADC1 and ADC2 global interrupts requests.
 348:stm32f10x_it.c **** * Input          : None
 349:stm32f10x_it.c **** * Output         : None
 350:stm32f10x_it.c **** * Return         : None
 351:stm32f10x_it.c **** *******************************************************************************/
 352:stm32f10x_it.c **** //void ADC1_2_IRQHandler(void)   //*****OK The name in the linker script is "ADC_IRQHandler"!!!!!!!
 353:stm32f10x_it.c **** void  __attribute__ ((weak)) ADC_IRQHandler(void)
 354:stm32f10x_it.c **** {
 420              		.loc 1 354 0
 421              		@ args = 0, pretend = 0, frame = 0
 422              		@ frame_needed = 0, uses_anonymous_args = 0
 423              		@ link register save eliminated.
 355:stm32f10x_it.c **** }
 424              		.loc 1 355 0
 425 0068 7047     		bx	lr
 426              	.LFE26:
 428 006a 00BF     		.align	2
 429              		.global	USB_HP_CAN_TX_IRQHandler
 430              		.thumb
 431              		.thumb_func
 433              	USB_HP_CAN_TX_IRQHandler:
 434              	.LFB27:
 356:stm32f10x_it.c **** 
 357:stm32f10x_it.c **** /*******************************************************************************
 358:stm32f10x_it.c **** * Function Name  : USB_HP_CAN_TX_IRQHandler
 359:stm32f10x_it.c **** * Description    : This function handles USB High Priority or CAN TX interrupts
 360:stm32f10x_it.c **** *                  requests.
 361:stm32f10x_it.c **** * Input          : None
 362:stm32f10x_it.c **** * Output         : None
 363:stm32f10x_it.c **** * Return         : None
 364:stm32f10x_it.c **** *******************************************************************************/
 365:stm32f10x_it.c **** void USB_HP_CAN_TX_IRQHandler(void)
 366:stm32f10x_it.c **** {
 435              		.loc 1 366 0
 436              		@ args = 0, pretend = 0, frame = 0
 437              		@ frame_needed = 0, uses_anonymous_args = 0
 438              		@ link register save eliminated.
 367:stm32f10x_it.c **** }
 439              		.loc 1 367 0
 440 006c 7047     		bx	lr
 441              	.LFE27:
 443 006e 00BF     		.align	2
 444              		.global	CAN_RX1_IRQHandler
 445              		.thumb
 446              		.thumb_func
 448              	CAN_RX1_IRQHandler:
 449              	.LFB29:
 368:stm32f10x_it.c **** 
 369:stm32f10x_it.c **** /*******************************************************************************
 370:stm32f10x_it.c **** * Function Name  : USB_LP_CAN_RX0_IRQHandler
 371:stm32f10x_it.c **** * Description    : This function handles USB Low Priority or CAN RX0 interrupts
 372:stm32f10x_it.c **** *                  requests.
 373:stm32f10x_it.c **** * Input          : None
 374:stm32f10x_it.c **** * Output         : None
 375:stm32f10x_it.c **** * Return         : None
 376:stm32f10x_it.c **** *******************************************************************************/
 377:stm32f10x_it.c **** void USB_LP_CAN_RX0_IRQHandler(void)
 378:stm32f10x_it.c **** {
 379:stm32f10x_it.c ****   USB_Istr();
 380:stm32f10x_it.c **** }
 381:stm32f10x_it.c **** 
 382:stm32f10x_it.c **** /*******************************************************************************
 383:stm32f10x_it.c **** * Function Name  : CAN_RX1_IRQHandler
 384:stm32f10x_it.c **** * Description    : This function handles CAN RX1 interrupt request.
 385:stm32f10x_it.c **** * Input          : None
 386:stm32f10x_it.c **** * Output         : None
 387:stm32f10x_it.c **** * Return         : None
 388:stm32f10x_it.c **** *******************************************************************************/
 389:stm32f10x_it.c **** void __attribute__ ((interrupt)) CAN_RX1_IRQHandler(void)
 390:stm32f10x_it.c **** {
 450              		.loc 1 390 0
 451              		@ Stack Align: May be called with mis-aligned SP.
 452              		@ args = 0, pretend = 0, frame = 0
 453              		@ frame_needed = 0, uses_anonymous_args = 0
 454 0070 6846     		mov	r0, sp
 455              	.LCFI0:
 456 0072 20F00701 		bic	r1, r0, #7
 457 0076 8D46     		mov	sp, r1
 458 0078 01B5     		push	{r0, lr}
 459              	.LCFI1:
 391:stm32f10x_it.c **** }
 460              		.loc 1 391 0
 461 007a BDE80140 		pop	{r0, lr}
 462 007e 8546     		mov	sp, r0
 463 0080 7047     		bx	lr
 464              	.LFE29:
 466 0082 00BF     		.align	2
 467              		.weak	CAN_SCE_IRQHandler
 468              		.thumb
 469              		.thumb_func
 471              	CAN_SCE_IRQHandler:
 472              	.LFB30:
 392:stm32f10x_it.c **** 
 393:stm32f10x_it.c **** /*******************************************************************************
 394:stm32f10x_it.c **** * Function Name  : CAN_SCE_IRQHandler
 395:stm32f10x_it.c **** * Description    : This function handles CAN SCE interrupt request.
 396:stm32f10x_it.c **** * Input          : None
 397:stm32f10x_it.c **** * Output         : None
 398:stm32f10x_it.c **** * Return         : None
 399:stm32f10x_it.c **** *******************************************************************************/
 400:stm32f10x_it.c **** void  __attribute__ ((weak)) CAN_SCE_IRQHandler(void)
 401:stm32f10x_it.c **** {
 473              		.loc 1 401 0
 474              		@ args = 0, pretend = 0, frame = 0
 475              		@ frame_needed = 0, uses_anonymous_args = 0
 476              		@ link register save eliminated.
 402:stm32f10x_it.c **** }
 477              		.loc 1 402 0
 478 0084 7047     		bx	lr
 479              	.LFE30:
 481 0086 00BF     		.align	2
 482              		.weak	EXTI9_5_IRQHandler
 483              		.thumb
 484              		.thumb_func
 486              	EXTI9_5_IRQHandler:
 487              	.LFB31:
 403:stm32f10x_it.c **** 
 404:stm32f10x_it.c **** /*******************************************************************************
 405:stm32f10x_it.c **** * Function Name  : EXTI9_5_IRQHandler
 406:stm32f10x_it.c **** * Description    : This function handles External lines 9 to 5 interrupt request.
 407:stm32f10x_it.c **** * Input          : None
 408:stm32f10x_it.c **** * Output         : None
 409:stm32f10x_it.c **** * Return         : None
 410:stm32f10x_it.c **** *******************************************************************************/
 411:stm32f10x_it.c **** void  __attribute__ ((weak)) EXTI9_5_IRQHandler(void)
 412:stm32f10x_it.c **** {
 488              		.loc 1 412 0
 489              		@ args = 0, pretend = 0, frame = 0
 490              		@ frame_needed = 0, uses_anonymous_args = 0
 491              		@ link register save eliminated.
 413:stm32f10x_it.c **** }
 492              		.loc 1 413 0
 493 0088 7047     		bx	lr
 494              	.LFE31:
 496 008a 00BF     		.align	2
 497              		.weak	TIM1_BRK_IRQHandler
 498              		.thumb
 499              		.thumb_func
 501              	TIM1_BRK_IRQHandler:
 502              	.LFB32:
 414:stm32f10x_it.c **** 
 415:stm32f10x_it.c **** /*******************************************************************************
 416:stm32f10x_it.c **** * Function Name  : TIM1_BRK_IRQHandler
 417:stm32f10x_it.c **** * Description    : This function handles TIM1 Break interrupt request.
 418:stm32f10x_it.c **** * Input          : None
 419:stm32f10x_it.c **** * Output         : None
 420:stm32f10x_it.c **** * Return         : None
 421:stm32f10x_it.c **** *******************************************************************************/
 422:stm32f10x_it.c **** void  __attribute__ ((weak)) TIM1_BRK_IRQHandler(void)
 423:stm32f10x_it.c **** {
 503              		.loc 1 423 0
 504              		@ args = 0, pretend = 0, frame = 0
 505              		@ frame_needed = 0, uses_anonymous_args = 0
 506              		@ link register save eliminated.
 424:stm32f10x_it.c **** }
 507              		.loc 1 424 0
 508 008c 7047     		bx	lr
 509              	.LFE32:
 511 008e 00BF     		.align	2
 512              		.weak	TIM1_UP_IRQHandler
 513              		.thumb
 514              		.thumb_func
 516              	TIM1_UP_IRQHandler:
 517              	.LFB33:
 425:stm32f10x_it.c **** 
 426:stm32f10x_it.c **** /*******************************************************************************
 427:stm32f10x_it.c **** * Function Name  : TIM1_UP_IRQHandler
 428:stm32f10x_it.c **** * Description    : This function handles TIM1 overflow and update interrupt
 429:stm32f10x_it.c **** *                  request.
 430:stm32f10x_it.c **** * Input          : None
 431:stm32f10x_it.c **** * Output         : None
 432:stm32f10x_it.c **** * Return         : None
 433:stm32f10x_it.c **** *******************************************************************************/
 434:stm32f10x_it.c **** void  __attribute__ ((weak)) TIM1_UP_IRQHandler(void)
 435:stm32f10x_it.c **** {
 518              		.loc 1 435 0
 519              		@ args = 0, pretend = 0, frame = 0
 520              		@ frame_needed = 0, uses_anonymous_args = 0
 521              		@ link register save eliminated.
 436:stm32f10x_it.c **** }
 522              		.loc 1 436 0
 523 0090 7047     		bx	lr
 524              	.LFE33:
 526 0092 00BF     		.align	2
 527              		.weak	TIM1_TRG_COM_IRQHandler
 528              		.thumb
 529              		.thumb_func
 531              	TIM1_TRG_COM_IRQHandler:
 532              	.LFB34:
 437:stm32f10x_it.c **** 
 438:stm32f10x_it.c **** /*******************************************************************************
 439:stm32f10x_it.c **** * Function Name  : TIM1_TRG_COM_IRQHandler
 440:stm32f10x_it.c **** * Description    : This function handles TIM1 Trigger and commutation interrupts
 441:stm32f10x_it.c **** *                  requests.
 442:stm32f10x_it.c **** * Input          : None
 443:stm32f10x_it.c **** * Output         : None
 444:stm32f10x_it.c **** * Return         : None
 445:stm32f10x_it.c **** *******************************************************************************/
 446:stm32f10x_it.c **** void  __attribute__ ((weak)) TIM1_TRG_COM_IRQHandler(void)
 447:stm32f10x_it.c **** {
 533              		.loc 1 447 0
 534              		@ args = 0, pretend = 0, frame = 0
 535              		@ frame_needed = 0, uses_anonymous_args = 0
 536              		@ link register save eliminated.
 448:stm32f10x_it.c **** }
 537              		.loc 1 448 0
 538 0094 7047     		bx	lr
 539              	.LFE34:
 541 0096 00BF     		.align	2
 542              		.weak	TIM1_CC_IRQHandler
 543              		.thumb
 544              		.thumb_func
 546              	TIM1_CC_IRQHandler:
 547              	.LFB35:
 449:stm32f10x_it.c **** 
 450:stm32f10x_it.c **** /*******************************************************************************
 451:stm32f10x_it.c **** * Function Name  : TIM1_CC_IRQHandler
 452:stm32f10x_it.c **** * Description    : This function handles TIM1 capture compare interrupt request.
 453:stm32f10x_it.c **** * Input          : None
 454:stm32f10x_it.c **** * Output         : None
 455:stm32f10x_it.c **** * Return         : None
 456:stm32f10x_it.c **** *******************************************************************************/
 457:stm32f10x_it.c **** void  __attribute__ ((weak)) TIM1_CC_IRQHandler(void)
 458:stm32f10x_it.c **** {
 548              		.loc 1 458 0
 549              		@ args = 0, pretend = 0, frame = 0
 550              		@ frame_needed = 0, uses_anonymous_args = 0
 551              		@ link register save eliminated.
 459:stm32f10x_it.c **** }
 552              		.loc 1 459 0
 553 0098 7047     		bx	lr
 554              	.LFE35:
 556 009a 00BF     		.align	2
 557              		.weak	TIM2_IRQHandler
 558              		.thumb
 559              		.thumb_func
 561              	TIM2_IRQHandler:
 562              	.LFB36:
 460:stm32f10x_it.c **** 
 461:stm32f10x_it.c **** /*******************************************************************************
 462:stm32f10x_it.c **** * Function Name  : TIM2_IRQHandler
 463:stm32f10x_it.c **** * Description    : This function handles TIM2 global interrupt request.
 464:stm32f10x_it.c **** * Input          : None
 465:stm32f10x_it.c **** * Output         : None
 466:stm32f10x_it.c **** * Return         : None
 467:stm32f10x_it.c **** *******************************************************************************/
 468:stm32f10x_it.c **** void  __attribute__ ((weak)) TIM2_IRQHandler(void)
 469:stm32f10x_it.c **** {
 563              		.loc 1 469 0
 564              		@ args = 0, pretend = 0, frame = 0
 565              		@ frame_needed = 0, uses_anonymous_args = 0
 566              		@ link register save eliminated.
 470:stm32f10x_it.c **** }
 567              		.loc 1 470 0
 568 009c 7047     		bx	lr
 569              	.LFE36:
 571 009e 00BF     		.align	2
 572              		.weak	TIM3_IRQHandler
 573              		.thumb
 574              		.thumb_func
 576              	TIM3_IRQHandler:
 577              	.LFB37:
 471:stm32f10x_it.c **** 
 472:stm32f10x_it.c **** /*******************************************************************************
 473:stm32f10x_it.c **** * Function Name  : TIM3_IRQHandler
 474:stm32f10x_it.c **** * Description    : This function handles TIM3 global interrupt request.
 475:stm32f10x_it.c **** * Input          : None
 476:stm32f10x_it.c **** * Output         : None
 477:stm32f10x_it.c **** * Return         : None
 478:stm32f10x_it.c **** *******************************************************************************/
 479:stm32f10x_it.c **** void  __attribute__ ((weak)) TIM3_IRQHandler(void)
 480:stm32f10x_it.c **** {
 578              		.loc 1 480 0
 579              		@ args = 0, pretend = 0, frame = 0
 580              		@ frame_needed = 0, uses_anonymous_args = 0
 581              		@ link register save eliminated.
 481:stm32f10x_it.c **** }
 582              		.loc 1 481 0
 583 00a0 7047     		bx	lr
 584              	.LFE37:
 586 00a2 00BF     		.align	2
 587              		.weak	TIM4_IRQHandler
 588              		.thumb
 589              		.thumb_func
 591              	TIM4_IRQHandler:
 592              	.LFB38:
 482:stm32f10x_it.c **** 
 483:stm32f10x_it.c **** /*******************************************************************************
 484:stm32f10x_it.c **** * Function Name  : TIM4_IRQHandler
 485:stm32f10x_it.c **** * Description    : This function handles TIM4 global interrupt request.
 486:stm32f10x_it.c **** * Input          : None
 487:stm32f10x_it.c **** * Output         : None
 488:stm32f10x_it.c **** * Return         : None
 489:stm32f10x_it.c **** *******************************************************************************/
 490:stm32f10x_it.c **** void  __attribute__ ((weak)) TIM4_IRQHandler(void)
 491:stm32f10x_it.c **** {
 593              		.loc 1 491 0
 594              		@ args = 0, pretend = 0, frame = 0
 595              		@ frame_needed = 0, uses_anonymous_args = 0
 596              		@ link register save eliminated.
 492:stm32f10x_it.c **** }
 597              		.loc 1 492 0
 598 00a4 7047     		bx	lr
 599              	.LFE38:
 601 00a6 00BF     		.align	2
 602              		.weak	I2C1_EV_IRQHandler
 603              		.thumb
 604              		.thumb_func
 606              	I2C1_EV_IRQHandler:
 607              	.LFB39:
 493:stm32f10x_it.c **** 
 494:stm32f10x_it.c **** /*******************************************************************************
 495:stm32f10x_it.c **** * Function Name  : I2C1_EV_IRQHandler
 496:stm32f10x_it.c **** * Description    : This function handles I2C1 Event interrupt request.
 497:stm32f10x_it.c **** * Input          : None
 498:stm32f10x_it.c **** * Output         : None
 499:stm32f10x_it.c **** * Return         : None
 500:stm32f10x_it.c **** *******************************************************************************/
 501:stm32f10x_it.c **** void  __attribute__ ((weak)) I2C1_EV_IRQHandler(void)
 502:stm32f10x_it.c **** {
 608              		.loc 1 502 0
 609              		@ args = 0, pretend = 0, frame = 0
 610              		@ frame_needed = 0, uses_anonymous_args = 0
 611              		@ link register save eliminated.
 503:stm32f10x_it.c **** }
 612              		.loc 1 503 0
 613 00a8 7047     		bx	lr
 614              	.LFE39:
 616 00aa 00BF     		.align	2
 617              		.weak	I2C1_ER_IRQHandler
 618              		.thumb
 619              		.thumb_func
 621              	I2C1_ER_IRQHandler:
 622              	.LFB40:
 504:stm32f10x_it.c **** 
 505:stm32f10x_it.c **** /*******************************************************************************
 506:stm32f10x_it.c **** * Function Name  : I2C1_ER_IRQHandler
 507:stm32f10x_it.c **** * Description    : This function handles I2C1 Error interrupt request.
 508:stm32f10x_it.c **** * Input          : None
 509:stm32f10x_it.c **** * Output         : None
 510:stm32f10x_it.c **** * Return         : None
 511:stm32f10x_it.c **** *******************************************************************************/
 512:stm32f10x_it.c **** void  __attribute__ ((weak)) I2C1_ER_IRQHandler(void)
 513:stm32f10x_it.c **** {
 623              		.loc 1 513 0
 624              		@ args = 0, pretend = 0, frame = 0
 625              		@ frame_needed = 0, uses_anonymous_args = 0
 626              		@ link register save eliminated.
 514:stm32f10x_it.c **** }
 627              		.loc 1 514 0
 628 00ac 7047     		bx	lr
 629              	.LFE40:
 631 00ae 00BF     		.align	2
 632              		.weak	I2C2_EV_IRQHandler
 633              		.thumb
 634              		.thumb_func
 636              	I2C2_EV_IRQHandler:
 637              	.LFB41:
 515:stm32f10x_it.c **** 
 516:stm32f10x_it.c **** /*******************************************************************************
 517:stm32f10x_it.c **** * Function Name  : I2C2_EV_IRQHandler
 518:stm32f10x_it.c **** * Description    : This function handles I2C2 Event interrupt request.
 519:stm32f10x_it.c **** * Input          : None
 520:stm32f10x_it.c **** * Output         : None
 521:stm32f10x_it.c **** * Return         : None
 522:stm32f10x_it.c **** *******************************************************************************/
 523:stm32f10x_it.c **** void  __attribute__ ((weak)) I2C2_EV_IRQHandler(void)
 524:stm32f10x_it.c **** {
 638              		.loc 1 524 0
 639              		@ args = 0, pretend = 0, frame = 0
 640              		@ frame_needed = 0, uses_anonymous_args = 0
 641              		@ link register save eliminated.
 525:stm32f10x_it.c **** }
 642              		.loc 1 525 0
 643 00b0 7047     		bx	lr
 644              	.LFE41:
 646 00b2 00BF     		.align	2
 647              		.weak	I2C2_ER_IRQHandler
 648              		.thumb
 649              		.thumb_func
 651              	I2C2_ER_IRQHandler:
 652              	.LFB42:
 526:stm32f10x_it.c **** 
 527:stm32f10x_it.c **** /*******************************************************************************
 528:stm32f10x_it.c **** * Function Name  : I2C2_ER_IRQHandler
 529:stm32f10x_it.c **** * Description    : This function handles I2C2 Error interrupt request.
 530:stm32f10x_it.c **** * Input          : None
 531:stm32f10x_it.c **** * Output         : None
 532:stm32f10x_it.c **** * Return         : None
 533:stm32f10x_it.c **** *******************************************************************************/
 534:stm32f10x_it.c **** void  __attribute__ ((weak)) I2C2_ER_IRQHandler(void)
 535:stm32f10x_it.c **** {
 653              		.loc 1 535 0
 654              		@ args = 0, pretend = 0, frame = 0
 655              		@ frame_needed = 0, uses_anonymous_args = 0
 656              		@ link register save eliminated.
 536:stm32f10x_it.c **** }
 657              		.loc 1 536 0
 658 00b4 7047     		bx	lr
 659              	.LFE42:
 661 00b6 00BF     		.align	2
 662              		.weak	SPI1_IRQHandler
 663              		.thumb
 664              		.thumb_func
 666              	SPI1_IRQHandler:
 667              	.LFB43:
 537:stm32f10x_it.c **** 
 538:stm32f10x_it.c **** /*******************************************************************************
 539:stm32f10x_it.c **** * Function Name  : SPI1_IRQHandler
 540:stm32f10x_it.c **** * Description    : This function handles SPI1 global interrupt request.
 541:stm32f10x_it.c **** * Input          : None
 542:stm32f10x_it.c **** * Output         : None
 543:stm32f10x_it.c **** * Return         : None
 544:stm32f10x_it.c **** *******************************************************************************/
 545:stm32f10x_it.c **** void __attribute__ ((weak)) SPI1_IRQHandler(void)
 546:stm32f10x_it.c **** {
 668              		.loc 1 546 0
 669              		@ args = 0, pretend = 0, frame = 0
 670              		@ frame_needed = 0, uses_anonymous_args = 0
 671              		@ link register save eliminated.
 547:stm32f10x_it.c **** }
 672              		.loc 1 547 0
 673 00b8 7047     		bx	lr
 674              	.LFE43:
 676 00ba 00BF     		.align	2
 677              		.weak	SPI2_IRQHandler
 678              		.thumb
 679              		.thumb_func
 681              	SPI2_IRQHandler:
 682              	.LFB44:
 548:stm32f10x_it.c **** 
 549:stm32f10x_it.c **** /*******************************************************************************
 550:stm32f10x_it.c **** * Function Name  : SPI2_IRQHandler
 551:stm32f10x_it.c **** * Description    : This function handles SPI2 global interrupt request.
 552:stm32f10x_it.c **** * Input          : None
 553:stm32f10x_it.c **** * Output         : None
 554:stm32f10x_it.c **** * Return         : None
 555:stm32f10x_it.c **** *******************************************************************************/
 556:stm32f10x_it.c **** void  __attribute__ ((weak)) SPI2_IRQHandler(void)
 557:stm32f10x_it.c **** {
 683              		.loc 1 557 0
 684              		@ args = 0, pretend = 0, frame = 0
 685              		@ frame_needed = 0, uses_anonymous_args = 0
 686              		@ link register save eliminated.
 558:stm32f10x_it.c **** }
 687              		.loc 1 558 0
 688 00bc 7047     		bx	lr
 689              	.LFE44:
 691 00be 00BF     		.align	2
 692              		.weak	USART1_IRQHandler
 693              		.thumb
 694              		.thumb_func
 696              	USART1_IRQHandler:
 697              	.LFB45:
 559:stm32f10x_it.c **** 
 560:stm32f10x_it.c **** /*******************************************************************************
 561:stm32f10x_it.c **** * Function Name  : USART1_IRQHandler
 562:stm32f10x_it.c **** * Description    : This function handles USART1 global interrupt request.
 563:stm32f10x_it.c **** * Input          : None
 564:stm32f10x_it.c **** * Output         : None
 565:stm32f10x_it.c **** * Return         : None
 566:stm32f10x_it.c **** *******************************************************************************/
 567:stm32f10x_it.c **** void  __attribute__ ((weak)) USART1_IRQHandler(void)
 568:stm32f10x_it.c **** {
 698              		.loc 1 568 0
 699              		@ args = 0, pretend = 0, frame = 0
 700              		@ frame_needed = 0, uses_anonymous_args = 0
 701              		@ link register save eliminated.
 569:stm32f10x_it.c **** }
 702              		.loc 1 569 0
 703 00c0 7047     		bx	lr
 704              	.LFE45:
 706 00c2 00BF     		.align	2
 707              		.weak	USART2_IRQHandler
 708              		.thumb
 709              		.thumb_func
 711              	USART2_IRQHandler:
 712              	.LFB46:
 570:stm32f10x_it.c **** 
 571:stm32f10x_it.c **** /*******************************************************************************
 572:stm32f10x_it.c **** * Function Name  : USART2_IRQHandler
 573:stm32f10x_it.c **** * Description    : This function handles USART2 global interrupt request.
 574:stm32f10x_it.c **** * Input          : None
 575:stm32f10x_it.c **** * Output         : None
 576:stm32f10x_it.c **** * Return         : None
 577:stm32f10x_it.c **** *******************************************************************************/
 578:stm32f10x_it.c **** void  __attribute__ ((weak)) USART2_IRQHandler(void)
 579:stm32f10x_it.c **** {
 713              		.loc 1 579 0
 714              		@ args = 0, pretend = 0, frame = 0
 715              		@ frame_needed = 0, uses_anonymous_args = 0
 716              		@ link register save eliminated.
 580:stm32f10x_it.c **** }
 717              		.loc 1 580 0
 718 00c4 7047     		bx	lr
 719              	.LFE46:
 721 00c6 00BF     		.align	2
 722              		.weak	USART3_IRQHandler
 723              		.thumb
 724              		.thumb_func
 726              	USART3_IRQHandler:
 727              	.LFB47:
 581:stm32f10x_it.c **** 
 582:stm32f10x_it.c **** /*******************************************************************************
 583:stm32f10x_it.c **** * Function Name  : USART3_IRQHandler
 584:stm32f10x_it.c **** * Description    : This function handles USART3 global interrupt request.
 585:stm32f10x_it.c **** * Input          : None
 586:stm32f10x_it.c **** * Output         : None
 587:stm32f10x_it.c **** * Return         : None
 588:stm32f10x_it.c **** *******************************************************************************/
 589:stm32f10x_it.c **** void  __attribute__ ((weak)) USART3_IRQHandler(void)
 590:stm32f10x_it.c **** {
 728              		.loc 1 590 0
 729              		@ args = 0, pretend = 0, frame = 0
 730              		@ frame_needed = 0, uses_anonymous_args = 0
 731              		@ link register save eliminated.
 591:stm32f10x_it.c **** }
 732              		.loc 1 591 0
 733 00c8 7047     		bx	lr
 734              	.LFE47:
 736 00ca 00BF     		.align	2
 737              		.weak	EXTI15_10_IRQHandler
 738              		.thumb
 739              		.thumb_func
 741              	EXTI15_10_IRQHandler:
 742              	.LFB48:
 592:stm32f10x_it.c **** 
 593:stm32f10x_it.c **** /*******************************************************************************
 594:stm32f10x_it.c **** * Function Name  : EXTI15_10_IRQHandler
 595:stm32f10x_it.c **** * Description    : This function handles External lines 15 to 10 interrupt request.
 596:stm32f10x_it.c **** * Input          : None
 597:stm32f10x_it.c **** * Output         : None
 598:stm32f10x_it.c **** * Return         : None
 599:stm32f10x_it.c **** *******************************************************************************/
 600:stm32f10x_it.c **** void  __attribute__ ((weak)) EXTI15_10_IRQHandler(void)
 601:stm32f10x_it.c **** {
 743              		.loc 1 601 0
 744              		@ args = 0, pretend = 0, frame = 0
 745              		@ frame_needed = 0, uses_anonymous_args = 0
 746              		@ link register save eliminated.
 602:stm32f10x_it.c **** }
 747              		.loc 1 602 0
 748 00cc 7047     		bx	lr
 749              	.LFE48:
 751 00ce 00BF     		.align	2
 752              		.weak	RTCAlarm_IRQHandler
 753              		.thumb
 754              		.thumb_func
 756              	RTCAlarm_IRQHandler:
 757              	.LFB49:
 603:stm32f10x_it.c **** 
 604:stm32f10x_it.c **** /*******************************************************************************
 605:stm32f10x_it.c **** * Function Name  : RTCAlarm_IRQHandler
 606:stm32f10x_it.c **** * Description    : This function handles RTC Alarm interrupt request.
 607:stm32f10x_it.c **** * Input          : None
 608:stm32f10x_it.c **** * Output         : None
 609:stm32f10x_it.c **** * Return         : None
 610:stm32f10x_it.c **** *******************************************************************************/
 611:stm32f10x_it.c **** void  __attribute__ ((weak)) RTCAlarm_IRQHandler(void)
 612:stm32f10x_it.c **** {
 758              		.loc 1 612 0
 759              		@ args = 0, pretend = 0, frame = 0
 760              		@ frame_needed = 0, uses_anonymous_args = 0
 761              		@ link register save eliminated.
 613:stm32f10x_it.c **** }
 762              		.loc 1 613 0
 763 00d0 7047     		bx	lr
 764              	.LFE49:
 766 00d2 00BF     		.align	2
 767              		.weak	USBWakeUp_IRQHandler
 768              		.thumb
 769              		.thumb_func
 771              	USBWakeUp_IRQHandler:
 772              	.LFB50:
 614:stm32f10x_it.c **** 
 615:stm32f10x_it.c **** /*******************************************************************************
 616:stm32f10x_it.c **** * Function Name  : USBWakeUp_IRQHandler
 617:stm32f10x_it.c **** * Description    : This function handles USB WakeUp interrupt request.
 618:stm32f10x_it.c **** * Input          : None
 619:stm32f10x_it.c **** * Output         : None
 620:stm32f10x_it.c **** * Return         : None
 621:stm32f10x_it.c **** *******************************************************************************/
 622:stm32f10x_it.c **** void  __attribute__ ((weak)) USBWakeUp_IRQHandler(void)
 623:stm32f10x_it.c **** {
 773              		.loc 1 623 0
 774              		@ args = 0, pretend = 0, frame = 0
 775              		@ frame_needed = 0, uses_anonymous_args = 0
 776              		@ link register save eliminated.
 624:stm32f10x_it.c **** }
 777              		.loc 1 624 0
 778 00d4 7047     		bx	lr
 779              	.LFE50:
 781 00d6 00BF     		.align	2
 782              		.weak	TIM8_BRK_IRQHandler
 783              		.thumb
 784              		.thumb_func
 786              	TIM8_BRK_IRQHandler:
 787              	.LFB51:
 625:stm32f10x_it.c **** 
 626:stm32f10x_it.c **** /*******************************************************************************
 627:stm32f10x_it.c **** * Function Name  : TIM8_BRK_IRQHandler
 628:stm32f10x_it.c **** * Description    : This function handles TIM8 Break interrupt request.
 629:stm32f10x_it.c **** * Input          : None
 630:stm32f10x_it.c **** * Output         : None
 631:stm32f10x_it.c **** * Return         : None
 632:stm32f10x_it.c **** *******************************************************************************/
 633:stm32f10x_it.c **** void  __attribute__ ((weak)) TIM8_BRK_IRQHandler(void)
 634:stm32f10x_it.c **** {
 788              		.loc 1 634 0
 789              		@ args = 0, pretend = 0, frame = 0
 790              		@ frame_needed = 0, uses_anonymous_args = 0
 791              		@ link register save eliminated.
 635:stm32f10x_it.c **** }
 792              		.loc 1 635 0
 793 00d8 7047     		bx	lr
 794              	.LFE51:
 796 00da 00BF     		.align	2
 797              		.weak	TIM8_UP_IRQHandler
 798              		.thumb
 799              		.thumb_func
 801              	TIM8_UP_IRQHandler:
 802              	.LFB52:
 636:stm32f10x_it.c **** 
 637:stm32f10x_it.c **** /*******************************************************************************
 638:stm32f10x_it.c **** * Function Name  : TIM8_UP_IRQHandler
 639:stm32f10x_it.c **** * Description    : This function handles TIM8 overflow and update interrupt
 640:stm32f10x_it.c **** *                  request.
 641:stm32f10x_it.c **** * Input          : None
 642:stm32f10x_it.c **** * Output         : None
 643:stm32f10x_it.c **** * Return         : None
 644:stm32f10x_it.c **** *******************************************************************************/
 645:stm32f10x_it.c **** void  __attribute__ ((weak)) TIM8_UP_IRQHandler(void)
 646:stm32f10x_it.c **** {
 803              		.loc 1 646 0
 804              		@ args = 0, pretend = 0, frame = 0
 805              		@ frame_needed = 0, uses_anonymous_args = 0
 806              		@ link register save eliminated.
 647:stm32f10x_it.c **** }
 807              		.loc 1 647 0
 808 00dc 7047     		bx	lr
 809              	.LFE52:
 811 00de 00BF     		.align	2
 812              		.weak	TIM8_TRG_COM_IRQHandler
 813              		.thumb
 814              		.thumb_func
 816              	TIM8_TRG_COM_IRQHandler:
 817              	.LFB53:
 648:stm32f10x_it.c **** 
 649:stm32f10x_it.c **** /*******************************************************************************
 650:stm32f10x_it.c **** * Function Name  : TIM8_TRG_COM_IRQHandler
 651:stm32f10x_it.c **** * Description    : This function handles TIM8 Trigger and commutation interrupts
 652:stm32f10x_it.c **** *                  requests.
 653:stm32f10x_it.c **** * Input          : None
 654:stm32f10x_it.c **** * Output         : None
 655:stm32f10x_it.c **** * Return         : None
 656:stm32f10x_it.c **** *******************************************************************************/
 657:stm32f10x_it.c **** void  __attribute__ ((weak)) TIM8_TRG_COM_IRQHandler(void)
 658:stm32f10x_it.c **** {
 818              		.loc 1 658 0
 819              		@ args = 0, pretend = 0, frame = 0
 820              		@ frame_needed = 0, uses_anonymous_args = 0
 821              		@ link register save eliminated.
 659:stm32f10x_it.c **** }
 822              		.loc 1 659 0
 823 00e0 7047     		bx	lr
 824              	.LFE53:
 826 00e2 00BF     		.align	2
 827              		.weak	TIM8_CC_IRQHandler
 828              		.thumb
 829              		.thumb_func
 831              	TIM8_CC_IRQHandler:
 832              	.LFB54:
 660:stm32f10x_it.c **** 
 661:stm32f10x_it.c **** /*******************************************************************************
 662:stm32f10x_it.c **** * Function Name  : TIM8_CC_IRQHandler
 663:stm32f10x_it.c **** * Description    : This function handles TIM8 capture compare interrupt request.
 664:stm32f10x_it.c **** * Input          : None
 665:stm32f10x_it.c **** * Output         : None
 666:stm32f10x_it.c **** * Return         : None
 667:stm32f10x_it.c **** *******************************************************************************/
 668:stm32f10x_it.c **** void  __attribute__ ((weak)) TIM8_CC_IRQHandler(void)
 669:stm32f10x_it.c **** {
 833              		.loc 1 669 0
 834              		@ args = 0, pretend = 0, frame = 0
 835              		@ frame_needed = 0, uses_anonymous_args = 0
 836              		@ link register save eliminated.
 670:stm32f10x_it.c **** }
 837              		.loc 1 670 0
 838 00e4 7047     		bx	lr
 839              	.LFE54:
 841 00e6 00BF     		.align	2
 842              		.weak	ADC3_IRQHandler
 843              		.thumb
 844              		.thumb_func
 846              	ADC3_IRQHandler:
 847              	.LFB55:
 671:stm32f10x_it.c **** 
 672:stm32f10x_it.c **** /*******************************************************************************
 673:stm32f10x_it.c **** * Function Name  : ADC3_IRQHandler
 674:stm32f10x_it.c **** * Description    : This function handles ADC3 global interrupt request.
 675:stm32f10x_it.c **** * Input          : None
 676:stm32f10x_it.c **** * Output         : None
 677:stm32f10x_it.c **** * Return         : None
 678:stm32f10x_it.c **** *******************************************************************************/
 679:stm32f10x_it.c **** void  __attribute__ ((weak)) ADC3_IRQHandler(void)
 680:stm32f10x_it.c **** {
 848              		.loc 1 680 0
 849              		@ args = 0, pretend = 0, frame = 0
 850              		@ frame_needed = 0, uses_anonymous_args = 0
 851              		@ link register save eliminated.
 681:stm32f10x_it.c **** }
 852              		.loc 1 681 0
 853 00e8 7047     		bx	lr
 854              	.LFE55:
 856 00ea 00BF     		.align	2
 857              		.weak	FSMC_IRQHandler
 858              		.thumb
 859              		.thumb_func
 861              	FSMC_IRQHandler:
 862              	.LFB56:
 682:stm32f10x_it.c **** 
 683:stm32f10x_it.c **** /*******************************************************************************
 684:stm32f10x_it.c **** * Function Name  : FSMC_IRQHandler
 685:stm32f10x_it.c **** * Description    : This function handles FSMC global interrupt request.
 686:stm32f10x_it.c **** * Input          : None
 687:stm32f10x_it.c **** * Output         : None
 688:stm32f10x_it.c **** * Return         : None
 689:stm32f10x_it.c **** *******************************************************************************/
 690:stm32f10x_it.c **** void  __attribute__ ((weak)) FSMC_IRQHandler(void)
 691:stm32f10x_it.c **** {
 863              		.loc 1 691 0
 864              		@ args = 0, pretend = 0, frame = 0
 865              		@ frame_needed = 0, uses_anonymous_args = 0
 866              		@ link register save eliminated.
 692:stm32f10x_it.c **** }
 867              		.loc 1 692 0
 868 00ec 7047     		bx	lr
 869              	.LFE56:
 871 00ee 00BF     		.align	2
 872              		.weak	SDIO_IRQHandler
 873              		.thumb
 874              		.thumb_func
 876              	SDIO_IRQHandler:
 877              	.LFB57:
 693:stm32f10x_it.c **** 
 694:stm32f10x_it.c **** /*******************************************************************************
 695:stm32f10x_it.c **** * Function Name  : SDIO_IRQHandler
 696:stm32f10x_it.c **** * Description    : This function handles SDIO global interrupt request.
 697:stm32f10x_it.c **** * Input          : None
 698:stm32f10x_it.c **** * Output         : None
 699:stm32f10x_it.c **** * Return         : None
 700:stm32f10x_it.c **** *******************************************************************************/
 701:stm32f10x_it.c **** void  __attribute__ ((weak)) SDIO_IRQHandler(void)
 702:stm32f10x_it.c **** {
 878              		.loc 1 702 0
 879              		@ args = 0, pretend = 0, frame = 0
 880              		@ frame_needed = 0, uses_anonymous_args = 0
 881              		@ link register save eliminated.
 703:stm32f10x_it.c **** }
 882              		.loc 1 703 0
 883 00f0 7047     		bx	lr
 884              	.LFE57:
 886 00f2 00BF     		.align	2
 887              		.weak	TIM5_IRQHandler
 888              		.thumb
 889              		.thumb_func
 891              	TIM5_IRQHandler:
 892              	.LFB58:
 704:stm32f10x_it.c **** 
 705:stm32f10x_it.c **** /*******************************************************************************
 706:stm32f10x_it.c **** * Function Name  : TIM5_IRQHandler
 707:stm32f10x_it.c **** * Description    : This function handles TIM5 global interrupt request.
 708:stm32f10x_it.c **** * Input          : None
 709:stm32f10x_it.c **** * Output         : None
 710:stm32f10x_it.c **** * Return         : None
 711:stm32f10x_it.c **** *******************************************************************************/
 712:stm32f10x_it.c **** void  __attribute__ ((weak)) TIM5_IRQHandler(void)
 713:stm32f10x_it.c **** {
 893              		.loc 1 713 0
 894              		@ args = 0, pretend = 0, frame = 0
 895              		@ frame_needed = 0, uses_anonymous_args = 0
 896              		@ link register save eliminated.
 714:stm32f10x_it.c **** }
 897              		.loc 1 714 0
 898 00f4 7047     		bx	lr
 899              	.LFE58:
 901 00f6 00BF     		.align	2
 902              		.weak	SPI3_IRQHandler
 903              		.thumb
 904              		.thumb_func
 906              	SPI3_IRQHandler:
 907              	.LFB59:
 715:stm32f10x_it.c **** 
 716:stm32f10x_it.c **** /*******************************************************************************
 717:stm32f10x_it.c **** * Function Name  : SPI3_IRQHandler
 718:stm32f10x_it.c **** * Description    : This function handles SPI3 global interrupt request.
 719:stm32f10x_it.c **** * Input          : None
 720:stm32f10x_it.c **** * Output         : None
 721:stm32f10x_it.c **** * Return         : None
 722:stm32f10x_it.c **** *******************************************************************************/
 723:stm32f10x_it.c **** void  __attribute__ ((weak)) SPI3_IRQHandler(void)
 724:stm32f10x_it.c **** {
 908              		.loc 1 724 0
 909              		@ args = 0, pretend = 0, frame = 0
 910              		@ frame_needed = 0, uses_anonymous_args = 0
 911              		@ link register save eliminated.
 725:stm32f10x_it.c **** }
 912              		.loc 1 725 0
 913 00f8 7047     		bx	lr
 914              	.LFE59:
 916 00fa 00BF     		.align	2
 917              		.weak	UART4_IRQHandler
 918              		.thumb
 919              		.thumb_func
 921              	UART4_IRQHandler:
 922              	.LFB60:
 726:stm32f10x_it.c **** 
 727:stm32f10x_it.c **** /*******************************************************************************
 728:stm32f10x_it.c **** * Function Name  : UART4_IRQHandler
 729:stm32f10x_it.c **** * Description    : This function handles UART4 global interrupt request.
 730:stm32f10x_it.c **** * Input          : None
 731:stm32f10x_it.c **** * Output         : None
 732:stm32f10x_it.c **** * Return         : None
 733:stm32f10x_it.c **** *******************************************************************************/
 734:stm32f10x_it.c **** void  __attribute__ ((weak)) UART4_IRQHandler(void)
 735:stm32f10x_it.c **** {
 923              		.loc 1 735 0
 924              		@ args = 0, pretend = 0, frame = 0
 925              		@ frame_needed = 0, uses_anonymous_args = 0
 926              		@ link register save eliminated.
 736:stm32f10x_it.c **** }
 927              		.loc 1 736 0
 928 00fc 7047     		bx	lr
 929              	.LFE60:
 931 00fe 00BF     		.align	2
 932              		.weak	UART5_IRQHandler
 933              		.thumb
 934              		.thumb_func
 936              	UART5_IRQHandler:
 937              	.LFB61:
 737:stm32f10x_it.c **** 
 738:stm32f10x_it.c **** /*******************************************************************************
 739:stm32f10x_it.c **** * Function Name  : UART5_IRQHandler
 740:stm32f10x_it.c **** * Description    : This function handles UART5 global interrupt request.
 741:stm32f10x_it.c **** * Input          : None
 742:stm32f10x_it.c **** * Output         : None
 743:stm32f10x_it.c **** * Return         : None
 744:stm32f10x_it.c **** *******************************************************************************/
 745:stm32f10x_it.c **** void  __attribute__ ((weak)) UART5_IRQHandler(void)
 746:stm32f10x_it.c **** {
 938              		.loc 1 746 0
 939              		@ args = 0, pretend = 0, frame = 0
 940              		@ frame_needed = 0, uses_anonymous_args = 0
 941              		@ link register save eliminated.
 747:stm32f10x_it.c **** }
 942              		.loc 1 747 0
 943 0100 7047     		bx	lr
 944              	.LFE61:
 946 0102 00BF     		.align	2
 947              		.weak	TIM6_IRQHandler
 948              		.thumb
 949              		.thumb_func
 951              	TIM6_IRQHandler:
 952              	.LFB62:
 748:stm32f10x_it.c **** 
 749:stm32f10x_it.c **** /*******************************************************************************
 750:stm32f10x_it.c **** * Function Name  : TIM6_IRQHandler
 751:stm32f10x_it.c **** * Description    : This function handles TIM6 global interrupt request.
 752:stm32f10x_it.c **** * Input          : None
 753:stm32f10x_it.c **** * Output         : None
 754:stm32f10x_it.c **** * Return         : None
 755:stm32f10x_it.c **** *******************************************************************************/
 756:stm32f10x_it.c **** void  __attribute__ ((weak)) TIM6_IRQHandler(void)
 757:stm32f10x_it.c **** {
 953              		.loc 1 757 0
 954              		@ args = 0, pretend = 0, frame = 0
 955              		@ frame_needed = 0, uses_anonymous_args = 0
 956              		@ link register save eliminated.
 758:stm32f10x_it.c **** }
 957              		.loc 1 758 0
 958 0104 7047     		bx	lr
 959              	.LFE62:
 961 0106 00BF     		.align	2
 962              		.weak	TIM7_IRQHandler
 963              		.thumb
 964              		.thumb_func
 966              	TIM7_IRQHandler:
 967              	.LFB63:
 759:stm32f10x_it.c **** 
 760:stm32f10x_it.c **** /*******************************************************************************
 761:stm32f10x_it.c **** * Function Name  : TIM7_IRQHandler
 762:stm32f10x_it.c **** * Description    : This function handles TIM7 global interrupt request.
 763:stm32f10x_it.c **** * Input          : None
 764:stm32f10x_it.c **** * Output         : None
 765:stm32f10x_it.c **** * Return         : None
 766:stm32f10x_it.c **** *******************************************************************************/
 767:stm32f10x_it.c **** void  __attribute__ ((weak)) TIM7_IRQHandler(void)
 768:stm32f10x_it.c **** {
 968              		.loc 1 768 0
 969              		@ args = 0, pretend = 0, frame = 0
 970              		@ frame_needed = 0, uses_anonymous_args = 0
 971              		@ link register save eliminated.
 769:stm32f10x_it.c **** }
 972              		.loc 1 769 0
 973 0108 7047     		bx	lr
 974              	.LFE63:
 976 010a 00BF     		.align	2
 977              		.weak	DMA2_Channel1_IRQHandler
 978              		.thumb
 979              		.thumb_func
 981              	DMA2_Channel1_IRQHandler:
 982              	.LFB64:
 770:stm32f10x_it.c **** 
 771:stm32f10x_it.c **** /*******************************************************************************
 772:stm32f10x_it.c **** * Function Name  : DMA2_Channel1_IRQHandler
 773:stm32f10x_it.c **** * Description    : This function handles DMA2 Channel 1 interrupt request.
 774:stm32f10x_it.c **** * Input          : None
 775:stm32f10x_it.c **** * Output         : None
 776:stm32f10x_it.c **** * Return         : None
 777:stm32f10x_it.c **** *******************************************************************************/
 778:stm32f10x_it.c **** void  __attribute__ ((weak)) DMA2_Channel1_IRQHandler(void)
 779:stm32f10x_it.c **** {
 983              		.loc 1 779 0
 984              		@ args = 0, pretend = 0, frame = 0
 985              		@ frame_needed = 0, uses_anonymous_args = 0
 986              		@ link register save eliminated.
 780:stm32f10x_it.c **** }
 987              		.loc 1 780 0
 988 010c 7047     		bx	lr
 989              	.LFE64:
 991 010e 00BF     		.align	2
 992              		.weak	DMA2_Channel2_IRQHandler
 993              		.thumb
 994              		.thumb_func
 996              	DMA2_Channel2_IRQHandler:
 997              	.LFB65:
 781:stm32f10x_it.c **** 
 782:stm32f10x_it.c **** /*******************************************************************************
 783:stm32f10x_it.c **** * Function Name  : DMA2_Channel2_IRQHandler
 784:stm32f10x_it.c **** * Description    : This function handles DMA2 Channel 2 interrupt request.
 785:stm32f10x_it.c **** * Input          : None
 786:stm32f10x_it.c **** * Output         : None
 787:stm32f10x_it.c **** * Return         : None
 788:stm32f10x_it.c **** *******************************************************************************/
 789:stm32f10x_it.c **** void  __attribute__ ((weak)) DMA2_Channel2_IRQHandler(void)
 790:stm32f10x_it.c **** {
 998              		.loc 1 790 0
 999              		@ args = 0, pretend = 0, frame = 0
 1000              		@ frame_needed = 0, uses_anonymous_args = 0
 1001              		@ link register save eliminated.
 791:stm32f10x_it.c **** }
 1002              		.loc 1 791 0
 1003 0110 7047     		bx	lr
 1004              	.LFE65:
 1006 0112 00BF     		.align	2
 1007              		.weak	DMA2_Channel3_IRQHandler
 1008              		.thumb
 1009              		.thumb_func
 1011              	DMA2_Channel3_IRQHandler:
 1012              	.LFB66:
 792:stm32f10x_it.c **** 
 793:stm32f10x_it.c **** /*******************************************************************************
 794:stm32f10x_it.c **** * Function Name  : DMA2_Channel3_IRQHandler
 795:stm32f10x_it.c **** * Description    : This function handles DMA2 Channel 3 interrupt request.
 796:stm32f10x_it.c **** * Input          : None
 797:stm32f10x_it.c **** * Output         : None
 798:stm32f10x_it.c **** * Return         : None
 799:stm32f10x_it.c **** *******************************************************************************/
 800:stm32f10x_it.c **** void  __attribute__ ((weak)) DMA2_Channel3_IRQHandler(void)
 801:stm32f10x_it.c **** {
 1013              		.loc 1 801 0
 1014              		@ args = 0, pretend = 0, frame = 0
 1015              		@ frame_needed = 0, uses_anonymous_args = 0
 1016              		@ link register save eliminated.
 802:stm32f10x_it.c **** }
 1017              		.loc 1 802 0
 1018 0114 7047     		bx	lr
 1019              	.LFE66:
 1021 0116 00BF     		.align	2
 1022              		.weak	DMA2_Channel4_5_IRQHandler
 1023              		.thumb
 1024              		.thumb_func
 1026              	DMA2_Channel4_5_IRQHandler:
 1027              	.LFB67:
 803:stm32f10x_it.c **** 
 804:stm32f10x_it.c **** /*******************************************************************************
 805:stm32f10x_it.c **** * Function Name  : DMA2_Channel4_5_IRQHandler
 806:stm32f10x_it.c **** * Description    : This function handles DMA2 Channel 4 and DMA2 Channel 5
 807:stm32f10x_it.c **** *                  interrupt request.
 808:stm32f10x_it.c **** * Input          : None
 809:stm32f10x_it.c **** * Output         : None
 810:stm32f10x_it.c **** * Return         : None
 811:stm32f10x_it.c **** *******************************************************************************/
 812:stm32f10x_it.c **** void  __attribute__ ((weak)) DMA2_Channel4_5_IRQHandler(void)
 813:stm32f10x_it.c **** {
 1028              		.loc 1 813 0
 1029              		@ args = 0, pretend = 0, frame = 0
 1030              		@ frame_needed = 0, uses_anonymous_args = 0
 1031              		@ link register save eliminated.
 814:stm32f10x_it.c **** }
 1032              		.loc 1 814 0
 1033 0118 7047     		bx	lr
 1034              	.LFE67:
 1036 011a 00BF     		.align	2
 1037              		.global	USB_LP_CAN_RX0_IRQHandler
 1038              		.thumb
 1039              		.thumb_func
 1041              	USB_LP_CAN_RX0_IRQHandler:
 1042              	.LFB28:
 1043              		.loc 1 378 0
 1044              		@ args = 0, pretend = 0, frame = 0
 1045              		@ frame_needed = 0, uses_anonymous_args = 0
 1046 011c 08B5     		push	{r3, lr}
 1047              	.LCFI2:
 1048              		.loc 1 379 0
 1049 011e FFF7FEFF 		bl	USB_Istr
 1050              		.loc 1 380 0
 1051 0122 08BD     		pop	{r3, pc}
 1052              	.LFE28:
 1639              	.Letext0: